; ModuleID = 'wcLink.ll'
source_filename = "llvm-link"
target datalayout = "e-m:e-p270:32:32-p271:32:32-p272:64:64-i64:64-f80:128-n8:16:32:64-S128"
target triple = "x86_64-unknown-linux-gnu"

%"class.std::ios_base::Init" = type { i8 }
%struct.timer = type { double, double, i8, %"class.std::__cxx11::basic_string", %struct.timezone }
%"class.std::__cxx11::basic_string" = type { %"struct.std::__cxx11::basic_string<char>::_Alloc_hider", i64, %union.anon }
%"struct.std::__cxx11::basic_string<char>::_Alloc_hider" = type { i8* }
%union.anon = type { i64, [8 x i8] }
%struct.timezone = type { i32, i32 }
%"class.std::basic_ostream" = type { i32 (...)**, %"class.std::basic_ios" }
%"class.std::basic_ios" = type { %"class.std::ios_base", %"class.std::basic_ostream"*, i8, i8, %"class.std::basic_streambuf"*, %"class.std::ctype"*, %"class.std::num_put"*, %"class.std::num_put"* }
%"class.std::ios_base" = type { i32 (...)**, i64, i64, i32, i32, i32, %"struct.std::ios_base::_Callback_list"*, %"struct.std::pair.426", [8 x %"struct.std::pair.426"], i32, %"struct.std::pair.426"*, %"class.std::locale" }
%"struct.std::ios_base::_Callback_list" = type { %"struct.std::ios_base::_Callback_list"*, void (i32, %"class.std::ios_base"*, i32)*, i32, i32 }
%"struct.std::pair.426" = type { i8*, i64 }
%"class.std::locale" = type { %"class.std::locale::_Impl"* }
%"class.std::locale::_Impl" = type { i32, %"class.std::locale::facet"**, i64, %"class.std::locale::facet"**, i8** }
%"class.std::locale::facet" = type <{ i32 (...)**, i32, [4 x i8] }>
%"class.std::basic_streambuf" = type { i32 (...)**, i8*, i8*, i8*, i8*, i8*, i8*, %"class.std::locale" }
%"class.std::ctype" = type <{ %"class.std::locale::facet.base", [4 x i8], %struct.__locale_struct*, i8, [7 x i8], i32*, i32*, i16*, i8, [256 x i8], [256 x i8], i8, [6 x i8] }>
%"class.std::locale::facet.base" = type <{ i32 (...)**, i32 }>
%struct.__locale_struct = type { [13 x %struct.__locale_data*], i16*, i32*, i32*, [13 x i8*] }
%struct.__locale_data = type opaque
%"class.std::num_put" = type { %"class.std::locale::facet.base", [4 x i8] }
%"struct.parlay::internal::pool_allocator" = type { i64, i64, i64, i64, %"struct.std::chrono::time_point", %"struct.std::chrono::time_point", %"class.std::unique_ptr", %"class.std::unique_ptr.35", %"class.std::unique_ptr.45" }
%"struct.std::chrono::time_point" = type { %"struct.parlay::plus" }
%"struct.parlay::plus" = type { i64 }
%"class.std::unique_ptr" = type { %"struct.std::__uniq_ptr_data" }
%"struct.std::__uniq_ptr_data" = type { %"class.std::__uniq_ptr_impl" }
%"class.std::__uniq_ptr_impl" = type { %"class.std::tuple" }
%"class.std::tuple" = type { %"struct.std::_Tuple_impl" }
%"struct.std::_Tuple_impl" = type { %"struct.std::_Head_base.34" }
%"struct.std::_Head_base.34" = type { i64* }
%"class.std::unique_ptr.35" = type { %"struct.std::__uniq_ptr_data.36" }
%"struct.std::__uniq_ptr_data.36" = type { %"class.std::__uniq_ptr_impl.37" }
%"class.std::__uniq_ptr_impl.37" = type { %"class.std::tuple.38" }
%"class.std::tuple.38" = type { %"struct.std::_Tuple_impl.39" }
%"struct.std::_Tuple_impl.39" = type { %"struct.std::_Head_base.42" }
%"struct.std::_Head_base.42" = type { %"class.parlay::internal::hazptr_stack"* }
%"class.parlay::internal::hazptr_stack" = type { %"struct.std::atomic.43" }
%"struct.std::atomic.43" = type { %"struct.std::__atomic_base.44" }
%"struct.std::__atomic_base.44" = type { %"struct.parlay::internal::hazptr_stack<void *>::Node"* }
%"struct.parlay::internal::hazptr_stack<void *>::Node" = type { i8*, %"struct.parlay::internal::hazptr_stack<void *>::Node"*, i64 }
%"class.std::unique_ptr.45" = type { %"struct.std::__uniq_ptr_data.46" }
%"struct.std::__uniq_ptr_data.46" = type { %"class.std::__uniq_ptr_impl.47" }
%"class.std::__uniq_ptr_impl.47" = type { %"class.std::tuple.48" }
%"class.std::tuple.48" = type { %"struct.std::_Tuple_impl.49" }
%"struct.std::_Tuple_impl.49" = type { %"struct.std::_Tuple_impl.50", %"struct.std::_Head_base.52" }
%"struct.std::_Tuple_impl.50" = type { %"struct.std::chrono::time_point" }
%"struct.std::_Head_base.52" = type { %"struct.parlay::internal::block_allocator"* }
%"struct.parlay::internal::block_allocator" = type { i64, %"class.parlay::internal::hazptr_stack.53", %"class.parlay::internal::hazptr_stack.56", %"class.std::unique_ptr.59", i64, i64, i64, i64, %"struct.std::chrono::time_point" }
%"class.parlay::internal::hazptr_stack.53" = type { %"struct.std::atomic.54" }
%"struct.std::atomic.54" = type { %"struct.std::__atomic_base.55" }
%"struct.std::__atomic_base.55" = type { %"struct.parlay::internal::hazptr_stack<std::byte *>::Node"* }
%"struct.parlay::internal::hazptr_stack<std::byte *>::Node" = type { i8*, %"struct.parlay::internal::hazptr_stack<std::byte *>::Node"*, i64 }
%"class.parlay::internal::hazptr_stack.56" = type { %"struct.std::atomic.57" }
%"struct.std::atomic.57" = type { %"struct.std::__atomic_base.58" }
%"struct.std::__atomic_base.58" = type { %"struct.parlay::internal::hazptr_stack<parlay::internal::block_allocator::block *>::Node"* }
%"struct.parlay::internal::hazptr_stack<parlay::internal::block_allocator::block *>::Node" = type { %"struct.parlay::internal::block_allocator::block"*, %"struct.parlay::internal::hazptr_stack<parlay::internal::block_allocator::block *>::Node"*, i64 }
%"struct.parlay::internal::block_allocator::block" = type { %"struct.parlay::internal::block_allocator::block"* }
%"class.std::unique_ptr.59" = type { %"struct.std::__uniq_ptr_data.60" }
%"struct.std::__uniq_ptr_data.60" = type { %"class.std::__uniq_ptr_impl.61" }
%"class.std::__uniq_ptr_impl.61" = type { %"class.std::tuple.62" }
%"class.std::tuple.62" = type { %"struct.std::_Tuple_impl.63" }
%"struct.std::_Tuple_impl.63" = type { %"struct.std::_Head_base.66" }
%"struct.std::_Head_base.66" = type { %"struct.parlay::internal::block_allocator::local_list"* }
%"struct.parlay::internal::block_allocator::local_list" = type { i64, %"struct.parlay::internal::block_allocator::block"*, %"struct.parlay::internal::block_allocator::block"*, [104 x i8] }
%"class.parlay::internal::acquire_retire" = type { %"struct.std::_Tuple_impl.50", %"class.std::unique_ptr.79", %"class.std::unique_ptr.87", %"class.std::unique_ptr.97", %"class.std::unique_ptr.112" }
%"class.std::unique_ptr.79" = type { %"struct.std::__uniq_ptr_data.80" }
%"struct.std::__uniq_ptr_data.80" = type { %"class.std::__uniq_ptr_impl.81" }
%"class.std::__uniq_ptr_impl.81" = type { %"class.std::tuple.82" }
%"class.std::tuple.82" = type { %"struct.std::_Tuple_impl.83" }
%"struct.std::_Tuple_impl.83" = type { %"struct.std::_Head_base.86" }
%"struct.std::_Head_base.86" = type { %"struct.parlay::padded"* }
%"struct.parlay::padded" = type { %"struct.std::atomic.43", [120 x i8] }
%"class.std::unique_ptr.87" = type { %"struct.std::__uniq_ptr_data.88" }
%"struct.std::__uniq_ptr_data.88" = type { %"class.std::__uniq_ptr_impl.89" }
%"class.std::__uniq_ptr_impl.89" = type { %"class.std::tuple.90" }
%"class.std::tuple.90" = type { %"struct.std::_Tuple_impl.91" }
%"struct.std::_Tuple_impl.91" = type { %"struct.std::_Head_base.94" }
%"struct.std::_Head_base.94" = type { %"struct.parlay::padded.95"* }
%"struct.parlay::padded.95" = type { i8, [127 x i8] }
%"class.std::unique_ptr.97" = type { %"struct.std::__uniq_ptr_data.98" }
%"struct.std::__uniq_ptr_data.98" = type { %"class.std::__uniq_ptr_impl.99" }
%"class.std::__uniq_ptr_impl.99" = type { %"class.std::tuple.100" }
%"class.std::tuple.100" = type { %"struct.std::_Tuple_impl.101" }
%"struct.std::_Tuple_impl.101" = type { %"struct.std::_Head_base.104" }
%"struct.std::_Head_base.104" = type { %"struct.parlay::padded.105"* }
%"struct.parlay::padded.105" = type { %"class.std::vector.106", [104 x i8] }
%"class.std::vector.106" = type { %"struct.std::_Vector_base.107" }
%"struct.std::_Vector_base.107" = type { %"struct.std::_Vector_base<parlay::internal::hazptr_stack<void *>::Node *, std::allocator<parlay::internal::hazptr_stack<void *>::Node *>>::_Vector_impl" }
%"struct.std::_Vector_base<parlay::internal::hazptr_stack<void *>::Node *, std::allocator<parlay::internal::hazptr_stack<void *>::Node *>>::_Vector_impl" = type { %"struct.std::_Vector_base<parlay::internal::hazptr_stack<void *>::Node *, std::allocator<parlay::internal::hazptr_stack<void *>::Node *>>::_Vector_impl_data" }
%"struct.std::_Vector_base<parlay::internal::hazptr_stack<void *>::Node *, std::allocator<parlay::internal::hazptr_stack<void *>::Node *>>::_Vector_impl_data" = type { %"struct.parlay::internal::hazptr_stack<void *>::Node"**, %"struct.parlay::internal::hazptr_stack<void *>::Node"**, %"struct.parlay::internal::hazptr_stack<void *>::Node"** }
%"class.std::unique_ptr.112" = type { %"struct.std::__uniq_ptr_data.113" }
%"struct.std::__uniq_ptr_data.113" = type { %"class.std::__uniq_ptr_impl.114" }
%"class.std::__uniq_ptr_impl.114" = type { %"class.std::tuple.115" }
%"class.std::tuple.115" = type { %"struct.std::_Tuple_impl.116" }
%"struct.std::_Tuple_impl.116" = type { %"struct.std::_Head_base.119" }
%"struct.std::_Head_base.119" = type { %"struct.parlay::padded.120"* }
%"struct.parlay::padded.120" = type { i64, [120 x i8] }
%"class.parlay::internal::acquire_retire.137" = type { %"struct.std::_Tuple_impl.50", %"class.std::unique_ptr.142", %"class.std::unique_ptr.87", %"class.std::unique_ptr.152", %"class.std::unique_ptr.112" }
%"class.std::unique_ptr.142" = type { %"struct.std::__uniq_ptr_data.143" }
%"struct.std::__uniq_ptr_data.143" = type { %"class.std::__uniq_ptr_impl.144" }
%"class.std::__uniq_ptr_impl.144" = type { %"class.std::tuple.145" }
%"class.std::tuple.145" = type { %"struct.std::_Tuple_impl.146" }
%"struct.std::_Tuple_impl.146" = type { %"struct.std::_Head_base.149" }
%"struct.std::_Head_base.149" = type { %"struct.parlay::padded.150"* }
%"struct.parlay::padded.150" = type { %"struct.std::atomic.54", [120 x i8] }
%"class.std::unique_ptr.152" = type { %"struct.std::__uniq_ptr_data.153" }
%"struct.std::__uniq_ptr_data.153" = type { %"class.std::__uniq_ptr_impl.154" }
%"class.std::__uniq_ptr_impl.154" = type { %"class.std::tuple.155" }
%"class.std::tuple.155" = type { %"struct.std::_Tuple_impl.156" }
%"struct.std::_Tuple_impl.156" = type { %"struct.std::_Head_base.159" }
%"struct.std::_Head_base.159" = type { %"struct.parlay::padded.160"* }
%"struct.parlay::padded.160" = type { %"class.std::vector.161", [104 x i8] }
%"class.std::vector.161" = type { %"struct.std::_Vector_base.162" }
%"struct.std::_Vector_base.162" = type { %"struct.std::_Vector_base<parlay::internal::hazptr_stack<std::byte *>::Node *, std::allocator<parlay::internal::hazptr_stack<std::byte *>::Node *>>::_Vector_impl" }
%"struct.std::_Vector_base<parlay::internal::hazptr_stack<std::byte *>::Node *, std::allocator<parlay::internal::hazptr_stack<std::byte *>::Node *>>::_Vector_impl" = type { %"struct.std::_Vector_base<parlay::internal::hazptr_stack<std::byte *>::Node *, std::allocator<parlay::internal::hazptr_stack<std::byte *>::Node *>>::_Vector_impl_data" }
%"struct.std::_Vector_base<parlay::internal::hazptr_stack<std::byte *>::Node *, std::allocator<parlay::internal::hazptr_stack<std::byte *>::Node *>>::_Vector_impl_data" = type { %"struct.parlay::internal::hazptr_stack<std::byte *>::Node"**, %"struct.parlay::internal::hazptr_stack<std::byte *>::Node"**, %"struct.parlay::internal::hazptr_stack<std::byte *>::Node"** }
%"class.parlay::internal::acquire_retire.179" = type { %"struct.std::_Tuple_impl.50", %"class.std::unique_ptr.184", %"class.std::unique_ptr.87", %"class.std::unique_ptr.194", %"class.std::unique_ptr.112" }
%"class.std::unique_ptr.184" = type { %"struct.std::__uniq_ptr_data.185" }
%"struct.std::__uniq_ptr_data.185" = type { %"class.std::__uniq_ptr_impl.186" }
%"class.std::__uniq_ptr_impl.186" = type { %"class.std::tuple.187" }
%"class.std::tuple.187" = type { %"struct.std::_Tuple_impl.188" }
%"struct.std::_Tuple_impl.188" = type { %"struct.std::_Head_base.191" }
%"struct.std::_Head_base.191" = type { %"struct.parlay::padded.192"* }
%"struct.parlay::padded.192" = type { %"struct.std::atomic.57", [120 x i8] }
%"class.std::unique_ptr.194" = type { %"struct.std::__uniq_ptr_data.195" }
%"struct.std::__uniq_ptr_data.195" = type { %"class.std::__uniq_ptr_impl.196" }
%"class.std::__uniq_ptr_impl.196" = type { %"class.std::tuple.197" }
%"class.std::tuple.197" = type { %"struct.std::_Tuple_impl.198" }
%"struct.std::_Tuple_impl.198" = type { %"struct.std::_Head_base.201" }
%"struct.std::_Head_base.201" = type { %"struct.parlay::padded.202"* }
%"struct.parlay::padded.202" = type { %"class.std::vector.203", [104 x i8] }
%"class.std::vector.203" = type { %"struct.std::_Vector_base.204" }
%"struct.std::_Vector_base.204" = type { %"struct.std::_Vector_base<parlay::internal::hazptr_stack<parlay::internal::block_allocator::block *>::Node *, std::allocator<parlay::internal::hazptr_stack<parlay::internal::block_allocator::block *>::Node *>>::_Vector_impl" }
%"struct.std::_Vector_base<parlay::internal::hazptr_stack<parlay::internal::block_allocator::block *>::Node *, std::allocator<parlay::internal::hazptr_stack<parlay::internal::block_allocator::block *>::Node *>>::_Vector_impl" = type { %"struct.std::_Vector_base<parlay::internal::hazptr_stack<parlay::internal::block_allocator::block *>::Node *, std::allocator<parlay::internal::hazptr_stack<parlay::internal::block_allocator::block *>::Node *>>::_Vector_impl_data" }
%"struct.std::_Vector_base<parlay::internal::hazptr_stack<parlay::internal::block_allocator::block *>::Node *, std::allocator<parlay::internal::hazptr_stack<parlay::internal::block_allocator::block *>::Node *>>::_Vector_impl_data" = type { %"struct.parlay::internal::hazptr_stack<parlay::internal::block_allocator::block *>::Node"**, %"struct.parlay::internal::hazptr_stack<parlay::internal::block_allocator::block *>::Node"**, %"struct.parlay::internal::hazptr_stack<parlay::internal::block_allocator::block *>::Node"** }
%struct.timeval = type { i64, i64 }
%"class.parlay::sequence.1" = type { %"struct.parlay::sequence_internal::sequence_base.base", i8 }
%"struct.parlay::sequence_internal::sequence_base.base" = type { %"struct.parlay::sequence_internal::sequence_base<std::pair<parlay::sequence<char, parlay::allocator<char>, true>, unsigned long>, parlay::allocator<std::pair<parlay::sequence<char, parlay::allocator<char>, true>, unsigned long>>, false>::storage_impl" }
%"struct.parlay::sequence_internal::sequence_base<std::pair<parlay::sequence<char, parlay::allocator<char>, true>, unsigned long>, parlay::allocator<std::pair<parlay::sequence<char, parlay::allocator<char>, true>, unsigned long>>, false>::storage_impl" = type { %"struct.parlay::sequence_internal::sequence_base<std::pair<parlay::sequence<char, parlay::allocator<char>, true>, unsigned long>, parlay::allocator<std::pair<parlay::sequence<char, parlay::allocator<char>, true>, unsigned long>>, false>::storage_impl::_data_impl" }
%"struct.parlay::sequence_internal::sequence_base<std::pair<parlay::sequence<char, parlay::allocator<char>, true>, unsigned long>, parlay::allocator<std::pair<parlay::sequence<char, parlay::allocator<char>, true>, unsigned long>>, false>::storage_impl::_data_impl" = type { %union.anon.5, i8 }
%union.anon.5 = type <{ i8*, [6 x i8] }>
%"class.parlay::sequence" = type { %"struct.parlay::sequence_internal::sequence_base" }
%"struct.parlay::sequence_internal::sequence_base" = type { %"struct.parlay::sequence_internal::sequence_base<char, parlay::allocator<char>, true>::storage_impl" }
%"struct.parlay::sequence_internal::sequence_base<char, parlay::allocator<char>, true>::storage_impl" = type { %"struct.parlay::sequence_internal::sequence_base<char, parlay::allocator<char>, true>::storage_impl::_data_impl" }
%"struct.parlay::sequence_internal::sequence_base<char, parlay::allocator<char>, true>::storage_impl::_data_impl" = type { %union.anon.0, i8 }
%union.anon.0 = type { %"struct.parlay::sequence_internal::sequence_base<char, parlay::allocator<char>, true>::storage_impl::short_seq" }
%"struct.parlay::sequence_internal::sequence_base<char, parlay::allocator<char>, true>::storage_impl::short_seq" = type { %"struct.std::array" }
%"struct.std::array" = type { [15 x i8] }
%"struct.std::pair.485" = type { %"class.parlay::sequence", i64 }
%"struct.parlay::slice.453" = type { i64*, i64* }
%"struct.parlay::slice.391" = type { i8**, i8** }
%class.anon.470 = type { i64*, i64*, %"struct.parlay::slice.391"*, %"struct.parlay::slice.415"*, %"class.parlay::sequence.1"*, i64* }
%"struct.parlay::slice.415" = type { %"class.parlay::delayed_sequence<unsigned long, unsigned long, (lambda at ./parlay/internal/collect_reduce.h:305:35)>::iterator", %"class.parlay::delayed_sequence<unsigned long, unsigned long, (lambda at ./parlay/internal/collect_reduce.h:305:35)>::iterator" }
%"class.parlay::delayed_sequence<unsigned long, unsigned long, (lambda at ./parlay/internal/collect_reduce.h:305:35)>::iterator" = type { %"class.parlay::delayed_sequence.400"*, i64 }
%"class.parlay::delayed_sequence.400" = type { i64, i64, %"struct.parlay::copyable_function_wrapper.401" }
%"struct.parlay::copyable_function_wrapper.401" = type { %class.anon.402 }
%class.anon.402 = type { %"struct.parlay::internal::get_bucket"*, %"struct.parlay::slice.391"* }
%"struct.parlay::internal::get_bucket" = type { %"class.parlay::sequence.1", i64, i64, i64, %"struct.parlay::count_by_key_helper" }
%"struct.parlay::count_by_key_helper" = type { %"class.std::ios_base::Init"*, %"class.std::ios_base::Init"* }
%class.anon.471 = type { i64*, %"class.parlay::sequence.1"*, i64*, %"class.parlay::sequence.1"* }
%class.anon.472 = type { %"class.parlay::sequence.1"*, %"struct.parlay::slice.391"*, i64*, %"class.parlay::sequence.1"*, i64*, %"class.parlay::sequence.1"* }
%"class.parlay::internal::uninitialized_sequence.425" = type { %"struct.parlay::internal::uninitialized_sequence<std::pair<char *, unsigned long>>::uninitialized_sequence_impl" }
%"struct.parlay::internal::uninitialized_sequence<std::pair<char *, unsigned long>>::uninitialized_sequence_impl" = type { i64, %"struct.std::pair.426"* }
%"struct.parlay::internal::timer" = type { double, %"struct.std::chrono::time_point", i8, %"class.std::__cxx11::basic_string" }
%"class.parlay::internal::uninitialized_sequence" = type { %"struct.parlay::internal::uninitialized_sequence<char *>::uninitialized_sequence_impl" }
%"struct.parlay::internal::uninitialized_sequence<char *>::uninitialized_sequence_impl" = type { i64, i8** }
%"struct.std::pair.411" = type { %"class.parlay::sequence.1", i8, [7 x i8] }
%class.anon.424 = type { %"class.parlay::internal::uninitialized_sequence"*, %"class.parlay::sequence.1"*, i64*, %"struct.parlay::count_by_key_helper"* }
%"struct.parlay::slice.368" = type { %struct.timeval*, %struct.timeval* }
%class.anon.370 = type { %"class.parlay::sequence.1"*, %"struct.parlay::slice.368"*, %"struct.parlay::monoid"* }
%"struct.parlay::monoid" = type { %struct.timeval }
%class.anon.371 = type { %"struct.parlay::slice.368"*, %"struct.parlay::slice.368"*, %"struct.parlay::monoid"*, %"class.parlay::sequence.1"*, i32*, i8* }
%"struct.parlay::internal::delayed::block_delayed_scan_t" = type <{ %"struct.parlay::internal::delayed::block_iterable_view_base", %struct.timeval, %"class.parlay::sequence.1", %"struct.parlay::copyable_function_wrapper.345", [7 x i8] }>
%"struct.parlay::internal::delayed::block_iterable_view_base" = type { %"struct.parlay::internal::delayed::block_iterable_view_base_data" }
%"struct.parlay::internal::delayed::block_iterable_view_base_data" = type { %"class.std::reference_wrapper" }
%"class.std::reference_wrapper" = type { %"class.parlay::delayed_sequence"* }
%"class.parlay::delayed_sequence" = type { i64, i64, %"struct.parlay::copyable_function_wrapper" }
%"struct.parlay::copyable_function_wrapper" = type { %class.anon.330 }
%class.anon.330 = type { %class.anon.326* }
%class.anon.326 = type { %"class.std::ios_base::Init"*, %"struct.parlay::slice"*, i64* }
%"struct.parlay::slice" = type { i8*, i8* }
%"struct.parlay::copyable_function_wrapper.345" = type { %"class.std::ios_base::Init" }
%class.anon.327 = type { i64*, %"class.std::ios_base::Init"*, %"struct.parlay::slice"* }
%"struct.std::pair.331" = type { %"struct.parlay::internal::delayed::block_delayed_scan_t", %struct.timeval }
%"struct.parlay::internal::delayed::block_delayed_zip_t" = type { i64, i64, %"class.std::tuple.348" }
%"class.std::tuple.348" = type { %"struct.std::_Tuple_impl.349" }
%"struct.std::_Tuple_impl.349" = type { %"struct.std::_Tuple_impl.350", %"struct.std::_Head_base.356" }
%"struct.std::_Tuple_impl.350" = type { %"struct.std::_Head_base.351" }
%"struct.std::_Head_base.351" = type { %"class.parlay::delayed_sequence.352" }
%"class.parlay::delayed_sequence.352" = type <{ i64, i64, %"struct.parlay::copyable_function_wrapper.345", [7 x i8] }>
%"struct.std::_Head_base.356" = type { %"class.std::reference_wrapper.357" }
%"class.std::reference_wrapper.357" = type { %"struct.parlay::internal::delayed::block_delayed_scan_t"* }
%class.anon.366 = type { %class.anon.327*, %"class.parlay::sequence.1"*, %"class.std::ios_base::Init"*, i8** }
%class.anon.27 = type { %"class.parlay::sequence.1"* }
%"struct.parlay::sequence_internal::sequence_base<char, parlay::allocator<char>, true>::storage_impl::capacitated_buffer::header" = type <{ i64, %union.anon.28, [7 x i8] }>
%union.anon.28 = type { [1 x i8] }
%"struct.parlay::sequence_internal::sequence_base<char, parlay::allocator<char>, true>::storage_impl::capacitated_buffer" = type { %"struct.parlay::sequence_internal::sequence_base<char, parlay::allocator<char>, true>::storage_impl::capacitated_buffer::header"* }
%"struct.parlay::sequence_internal::sequence_base<std::pair<long, long>, parlay::allocator<std::pair<long, long>>, false>::storage_impl::capacitated_buffer" = type { %"struct.parlay::sequence_internal::sequence_base<std::pair<long, long>, parlay::allocator<std::pair<long, long>>, false>::storage_impl::capacitated_buffer::header"* }
%"struct.parlay::sequence_internal::sequence_base<std::pair<long, long>, parlay::allocator<std::pair<long, long>>, false>::storage_impl::capacitated_buffer::header" = type { i64, %union.anon.342 }
%union.anon.342 = type { [1 x i8], [7 x i8] }
%"struct.parlay::sequence_internal::sequence_base.338" = type { %"struct.parlay::sequence_internal::sequence_base<std::pair<parlay::sequence<char, parlay::allocator<char>, true>, unsigned long>, parlay::allocator<std::pair<parlay::sequence<char, parlay::allocator<char>, true>, unsigned long>>, false>::storage_impl", i8 }
%"struct.std::pair.438" = type <{ i8*, i32, [4 x i8] }>
%"struct.parlay::sequence_internal::sequence_base<unsigned int, parlay::allocator<unsigned int>, false>::storage_impl::capacitated_buffer" = type { %"struct.parlay::sequence_internal::sequence_base<unsigned int, parlay::allocator<unsigned int>, false>::storage_impl::capacitated_buffer::header"* }
%"struct.parlay::sequence_internal::sequence_base<unsigned int, parlay::allocator<unsigned int>, false>::storage_impl::capacitated_buffer::header" = type <{ i64, %union.anon.448, [4 x i8] }>
%union.anon.448 = type { [1 x i8], [3 x i8] }
%"class.std::vector" = type { %"struct.std::_Vector_base" }
%"struct.std::_Vector_base" = type { %"struct.std::_Vector_base<unsigned long, std::allocator<unsigned long>>::_Vector_impl" }
%"struct.std::_Vector_base<unsigned long, std::allocator<unsigned long>>::_Vector_impl" = type { %"struct.std::_Vector_base<unsigned long, std::allocator<unsigned long>>::_Vector_impl_data" }
%"struct.std::_Vector_base<unsigned long, std::allocator<unsigned long>>::_Vector_impl_data" = type { i64*, i64*, i64* }
%"struct.parlay::internal::delayed::block_delayed_zip_t<parlay::internal::delayed::block_delayed_scan_t<parlay::delayed_sequence<std::pair<long, long>, std::pair<long, long>, (lambda at ./parlay/primitives.h:1093:47)> &, false, (lambda at ./parlay/primitives.h:1091:12), std::pair<long, long>> &, parlay::delayed_sequence<unsigned long, unsigned long, (lambda at ./parlay/primitives.h:966:44)>>::iterator_t" = type { i64, %"class.std::tuple.376" }
%"class.std::tuple.376" = type { %"struct.std::_Tuple_impl.377" }
%"struct.std::_Tuple_impl.377" = type { %"struct.std::_Tuple_impl.378", %"struct.std::_Head_base.380" }
%"struct.std::_Tuple_impl.378" = type { %"struct.std::_Head_base.379" }
%"struct.std::_Head_base.379" = type { %"class.parlay::delayed_sequence<unsigned long, unsigned long, (lambda at ./parlay/primitives.h:966:44)>::iterator" }
%"class.parlay::delayed_sequence<unsigned long, unsigned long, (lambda at ./parlay/primitives.h:966:44)>::iterator" = type { %"class.parlay::delayed_sequence.352"*, i64 }
%"struct.std::_Head_base.380" = type { %"struct.parlay::internal::delayed::block_delayed_scan_t<parlay::delayed_sequence<std::pair<long, long>, std::pair<long, long>, (lambda at ./parlay/primitives.h:1093:47)> &, false, (lambda at ./parlay/primitives.h:1091:12), std::pair<long, long>>::iterator_t" }
%"struct.parlay::internal::delayed::block_delayed_scan_t<parlay::delayed_sequence<std::pair<long, long>, std::pair<long, long>, (lambda at ./parlay/primitives.h:1093:47)> &, false, (lambda at ./parlay/primitives.h:1091:12), std::pair<long, long>>::iterator_t" = type { %struct.timeval, %"class.parlay::delayed_sequence<std::pair<long, long>, std::pair<long, long>, (lambda at ./parlay/primitives.h:1093:47)>::iterator", %"struct.parlay::internal::delayed::block_delayed_scan_t"* }
%"class.parlay::delayed_sequence<std::pair<long, long>, std::pair<long, long>, (lambda at ./parlay/primitives.h:1093:47)>::iterator" = type { %"class.parlay::delayed_sequence"*, i64 }
%class.anon.437 = type { %"class.parlay::sequence.1"*, i8**, i8* }
%class.anon.469 = type { i64*, i64*, %class.anon.467* }
%class.anon.467 = type { %"struct.parlay::slice.453"*, %"struct.parlay::slice.453"*, %"struct.parlay::plus"*, %"class.parlay::sequence.1"*, i32*, i8* }
%class.anon.468 = type { i64*, i64*, %class.anon.466* }
%class.anon.466 = type { %"class.parlay::sequence.1"*, %"struct.parlay::slice.453"*, %"struct.parlay::plus"* }
%class.anon.479 = type { %"class.parlay::sequence.1"*, %"class.parlay::sequence.1"*, %"class.parlay::sequence.1"* }
%class.anon.489 = type { %"class.parlay::sequence"*, i8**, i8** }
%class.anon.480 = type { %"class.parlay::sequence.1"*, i64**, %class.anon.27* }
%class.anon.484 = type { i64*, i64*, %"struct.std::pair.426"**, %"struct.std::pair.426"** }
%"class.std::unordered_multiset.248" = type { %"class.std::_Hashtable.249" }
%"class.std::_Hashtable.249" = type { %"struct.std::__detail::_Hash_node_base"**, i64, %"struct.std::__detail::_Hash_node_base", i64, %"struct.std::__detail::_Prime_rehash_policy", %"struct.std::__detail::_Hash_node_base"* }
%"struct.std::__detail::_Hash_node_base" = type { %"struct.std::__detail::_Hash_node_base"* }
%"struct.std::__detail::_Prime_rehash_policy" = type { float, i64 }
%"struct.std::__detail::_Hash_node.272" = type { %"struct.std::__detail::_Hash_node_base", %"struct.std::__detail::_Hash_node_value.273" }
%"struct.std::__detail::_Hash_node_value.273" = type { %"struct.std::__detail::_Hash_node_value_base.274" }
%"struct.std::__detail::_Hash_node_value_base.274" = type { %"struct.__gnu_cxx::__aligned_buffer.275" }
%"struct.__gnu_cxx::__aligned_buffer.275" = type { %"union.std::aligned_storage<8, 8>::type" }
%"union.std::aligned_storage<8, 8>::type" = type { [8 x i8] }
%"struct.__gnu_cxx::__ops::_Iter_pred.281" = type { %class.anon.269 }
%class.anon.269 = type { %"class.std::unordered_multiset.248"*, %"class.parlay::internal::acquire_retire.179"* }
%"struct.__gnu_cxx::__ops::_Iter_pred.323" = type { %class.anon.311 }
%class.anon.311 = type { %"class.std::unordered_multiset.248"*, %"class.parlay::internal::acquire_retire"* }
%"struct.__gnu_cxx::__ops::_Iter_pred.239" = type { %class.anon.232 }
%class.anon.232 = type { %"class.std::unordered_multiset.248"*, %"class.parlay::internal::acquire_retire.137"* }
%"class.std::basic_ifstream" = type { %"class.std::basic_istream.base", %"class.std::basic_filebuf", %"class.std::basic_ios" }
%"class.std::basic_istream.base" = type { i32 (...)**, i64 }
%"class.std::basic_filebuf" = type { %"class.std::basic_streambuf", %union.pthread_mutex_t, %"class.std::__basic_file", i32, %struct.__mbstate_t, %struct.__mbstate_t, %struct.__mbstate_t, i8*, i64, i8, i8, i8, i8, i8*, i8*, i8, %"class.std::codecvt"*, i8*, i64, i8*, i8* }
%union.pthread_mutex_t = type { %"struct.(anonymous union)::__pthread_mutex_s" }
%"struct.(anonymous union)::__pthread_mutex_s" = type { i32, i32, i32, i32, i32, i16, i16, %struct.__pthread_internal_list }
%struct.__pthread_internal_list = type { %struct.__pthread_internal_list*, %struct.__pthread_internal_list* }
%"class.std::__basic_file" = type <{ %struct._IO_FILE*, i8, [7 x i8] }>
%struct._IO_FILE = type { i32, i8*, i8*, i8*, i8*, i8*, i8*, i8*, i8*, i8*, i8*, i8*, %struct._IO_marker*, %struct._IO_FILE*, i32, i32, i64, i16, i8, [1 x i8], i8*, i64, i8*, i8*, i8*, i8*, i64, i32, [20 x i8] }
%struct._IO_marker = type { %struct._IO_marker*, %struct._IO_FILE*, i32 }
%struct.__mbstate_t = type { i32, %union.anon.0.44 }
%union.anon.0.44 = type { i32 }
%"class.std::codecvt" = type { %"class.std::__codecvt_abstract_base.base", %struct.__locale_struct* }
%"class.std::__codecvt_abstract_base.base" = type { %"class.std::locale::facet.base" }
%"class.std::basic_istream" = type { i32 (...)**, i64, %"class.std::basic_ios" }
%class.anon.369 = type { %"class.parlay::sequence"*, i8**, i8* }
%class.anon.403 = type { %"class.parlay::delayed_sequence.352"*, %class.anon.326*, i64*, %"struct.parlay::internal::delayed::block_delayed_filter_op_t"* }
%"struct.parlay::internal::delayed::block_delayed_filter_op_t" = type { %"struct.std::_Tuple_impl.350", %"struct.parlay::internal::delayed::block_delayed_flatten_t" }
%"struct.parlay::internal::delayed::block_delayed_flatten_t" = type { %"struct.parlay::internal::delayed::block_iterable_view_base.374", i64, i64, %"class.parlay::sequence.1", %"class.parlay::sequence.1" }
%"struct.parlay::internal::delayed::block_iterable_view_base.374" = type { %"struct.parlay::internal::delayed::block_iterable_view_base_data.375" }
%"struct.parlay::internal::delayed::block_iterable_view_base_data.375" = type { %"class.parlay::sequence.1" }
%class.anon.401 = type { %"class.std::ios_base::Init"*, %"struct.parlay::slice"*, %"class.parlay::sequence.1"* }
%struct.stat = type { i64, i64, i64, i32, i32, i32, i32, i64, i64, i64, i64, %struct.timeval, %struct.timeval, %struct.timeval, [3 x i64] }
%class.anon.413 = type { i64*, i64*, i64**, i64** }
%"class.parlay::internal::uninitialized_sequence.75" = type { %"struct.parlay::internal::uninitialized_sequence<unsigned long>::uninitialized_sequence_impl" }
%"struct.parlay::internal::uninitialized_sequence<unsigned long>::uninitialized_sequence_impl" = type { i64, i64* }
%"class.parlay::delayed_sequence.415" = type { i64, i64, %"struct.parlay::copyable_function_wrapper.416" }
%"struct.parlay::copyable_function_wrapper.416" = type { %class.anon.417 }
%class.anon.417 = type <{ %"class.parlay::sequence.1"*, %"class.std::ios_base::Init", [7 x i8] }>
%"class.parlay::delayed_sequence<unsigned long, unsigned long, (lambda at ../bench/parlay/internal/delayed/../sequence_ops.h:129:30)>::iterator" = type { %"class.parlay::delayed_sequence.415"*, i64 }
%class.anon.423 = type { %"class.parlay::sequence.1"*, i64**, %"class.parlay::delayed_sequence<unsigned long, unsigned long, (lambda at ../bench/parlay/internal/delayed/../sequence_ops.h:129:30)>::iterator"* }
%class.anon.355 = type { %class.anon.29, %"struct.std::pair.485"* }
%class.anon.29 = type { %"class.parlay::sequence"*, %"class.parlay::sequence"* }
%class.anon.346 = type { %"class.parlay::sequence"* }
%class.anon.348 = type { %"class.parlay::sequence"*, %"class.parlay::sequence"*, %"class.parlay::sequence.1"* }
%"class.std::basic_ofstream" = type { %"class.std::basic_ostream.base", %"class.std::basic_filebuf", %"class.std::basic_ios" }
%"class.std::basic_ostream.base" = type { i32 (...)** }
%class.anon.349 = type { %"class.parlay::sequence.1"*, i64**, %class.anon.346* }
%class.anon.354 = type { i64*, i64*, i8**, i8** }
%class.anon.360 = type { i8**, i8**, %"struct.parlay::sequence_internal::sequence_base<char, parlay::allocator<char>, true>::storage_impl"* }
%struct.commandLine = type { i32, i8**, %"class.std::__cxx11::basic_string" }

$_ZN6parlay8internal31default_allocator_max_pool_sizeE = comdat any

$_ZN5timerD2Ev = comdat any

$_ZN6parlay8internal21get_default_allocatorEv = comdat any

$__clang_call_terminate = comdat any

$_ZN6parlay8internal14pool_allocator8allocateEm = comdat any

$_ZN6parlay17sequence_internal13sequence_baseIcNS_9allocatorIcEELb1EE12storage_impl18capacitated_buffer11free_bufferERNS2_ISt4byteEE = comdat any

$_ZN5timer4nextENSt7__cxx1112basic_stringIcSt11char_traitsIcESaIcEEE = comdat any

$_ZN6parlay17sequence_internal13sequence_baseISt4pairIllENS_9allocatorIS3_EELb0EE12storage_impl18capacitated_buffer11free_bufferERNS4_ISt4byteEE = comdat any

$_ZN6parlay8sequenceISt4pairIllENS_9allocatorIS2_EELb0EE13uninitializedEm = comdat any

$_ZN6parlay17sequence_internal13sequence_baseISt4pairIllENS_9allocatorIS3_EELb0EED2Ev = comdat any

$_ZN6parlay8sequenceIPcNS_9allocatorIS1_EELb0EE13uninitializedEm = comdat any

$_ZN6parlay17sequence_internal13sequence_baseIPcNS_9allocatorIS2_EELb0EE12storage_impl18capacitated_buffer11free_bufferERNS3_ISt4byteEE = comdat any

$_ZN6parlay8sequenceIbNS_9allocatorIbEELb0EE15initialize_fillEmRKb = comdat any

$_ZN6parlay8internal12hazptr_stackIPvE4pushES2_ = comdat any

$_ZN6parlay8internal15block_allocator4freeEPv = comdat any

$_ZN6parlay8sequenceISt4pairIPcmENS_9allocatorIS3_EELb0EE13uninitializedEm = comdat any

$_ZN6parlay17sequence_internal13sequence_baseISt4pairIPcmENS_9allocatorIS4_EELb0EE12storage_impl18capacitated_buffer11free_bufferERNS5_ISt4byteEE = comdat any

$_ZN6parlay9allocatorISt4pairIPcmEE10deallocateEPS3_m = comdat any

$_ZN6parlay8sequenceISt4pairIPciENS_9allocatorIS3_EELb0EEC2EmRKS3_ = comdat any

$_ZN6parlay17sequence_internal13sequence_baseISt4pairIPciENS_9allocatorIS4_EELb0EE12storage_impl18capacitated_buffer11free_bufferERNS5_ISt4byteEE = comdat any

$_ZN6parlay17sequence_internal13sequence_baseImNS_9allocatorImEELb0EE12storage_impl18capacitated_buffer11free_bufferERNS2_ISt4byteEE = comdat any

$_ZN6parlay8sequenceIjNS_9allocatorIjEELb0EE13uninitializedEm = comdat any

$_ZN6parlay8sequenceImNS_9allocatorImEELb0EE13uninitializedEm = comdat any

$_ZN6parlay8internal5scan_INS_5sliceIPmS3_EES4_NS_4plusImEEEEDaRKT_T0_OT1_jb = comdat any

$_ZN6parlay8sequenceIPPcNS_9allocatorIS2_EELb0EE13uninitializedEm = comdat any

$_ZN6parlay17sequence_internal13sequence_baseIPPcNS_9allocatorIS3_EELb0EE12storage_impl18capacitated_buffer11free_bufferERNS4_ISt4byteEE = comdat any

$_ZN6parlay17sequence_internal13sequence_baseIjNS_9allocatorIjEELb0EE12storage_impl18capacitated_buffer11free_bufferERNS2_ISt4byteEE = comdat any

$_ZN6parlay8internal5timer4nextENSt7__cxx1112basic_stringIcSt11char_traitsIcESaIcEEE = comdat any

$_ZN6parlay12parallel_forIZNS_17sequence_internal13sequence_baseINS_8sequenceISt4pairIPcmENS_9allocatorIS6_EELb0EEENS7_IS9_EELb0EE12storage_impl11destroy_allEvEUlmE_EEvmmT_lb = comdat any

$_ZN6parlay17sequence_internal13sequence_baseINS_8sequenceISt4pairIPcmENS_9allocatorIS5_EELb0EEENS6_IS8_EELb0EE12storage_impl18capacitated_buffer11free_bufferERNS6_ISt4byteEE = comdat any

$_ZN6parlay7flattenISt4pairIPcmEEEDaONS_8sequenceINS4_IT_NS_9allocatorIS5_EEXsr3std7is_sameIS5_cEE5valueEEENS6_IS8_EEXsr3std7is_sameIS8_cEE5valueEEE = comdat any

$_ZN6parlay9allocatorIPcE10deallocateEPS1_m = comdat any

$_ZN6parlay12parallel_forIZNS_17sequence_internal13sequence_baseISt4pairINS_8sequenceIcNS_9allocatorIcEELb1EEEmENS5_IS8_EELb0EE12storage_impl11destroy_allEvEUlmE_EEvmmT_lb = comdat any

$_ZN6parlay17sequence_internal13sequence_baseISt4pairINS_8sequenceIcNS_9allocatorIcEELb1EEEmENS4_IS7_EELb0EE12storage_impl18capacitated_buffer11free_bufferERNS4_ISt4byteEE = comdat any

$_ZN6parlay17sequence_internal13sequence_baseISt4pairINS_8sequenceIcNS_9allocatorIcEELb1EEEmENS4_IS7_EELb0EED2Ev = comdat any

$_ZN6parlay17sequence_internal13sequence_baseISt4pairIPcmENS_9allocatorIS4_EELb0EED2Ev = comdat any

$_ZN6parlay17sequence_internal13sequence_baseIPcNS_9allocatorIS2_EELb0EED2Ev = comdat any

$_ZN6parlay17sequence_internal13sequence_baseIcNS_9allocatorIcEELb1EED2Ev = comdat any

$_ZN6parlay8sequenceIcNS_9allocatorIcEELb1EE16initialize_rangeIPcEEvT_S6_St26random_access_iterator_tag = comdat any

$_ZN6parlay12parallel_forIZNS_8sequenceIcNS_9allocatorIcEELb1EE16initialize_rangeIPcEEvT_S7_St26random_access_iterator_tagEUlmE_EEvmmS7_lb = comdat any

$_ZN6parlay8sequenceImNS_9allocatorImEELb0EEC2IZNS_7flattenISt4pairIPcmEEEDaONS0_INS0_IT_NS1_IS9_EEXsr3std7is_sameIS9_cEE5valueEEENS1_ISB_EEXsr3std7is_sameISB_cEE5valueEEEEUlmE_EEmOS9_NS3_18_from_function_tagEm = comdat any

$_ZN6parlay12parallel_forIZNS_7flattenISt4pairIPcmEEEDaONS_8sequenceINS5_IT_NS_9allocatorIS6_EEXsr3std7is_sameIS6_cEE5valueEEENS7_IS9_EEXsr3std7is_sameIS9_cEE5valueEEEEUlmE0_EEvmmS6_lb = comdat any

$_ZN6parlay17sequence_internal13sequence_baseImNS_9allocatorImEELb0EED2Ev = comdat any

$_ZN6parlay12parallel_forIZNS_26uninitialized_relocate_n_aIPSt4pairIPcmES5_SaIS4_EEEvT_T0_mRT1_EUlmE_EEvmmS7_lb = comdat any

$_ZN6parlay12parallel_forIZNS_8sequenceImNS_9allocatorImEELb0EEC1IZNS_7flattenISt4pairIPcmEEEDaONS1_INS1_IT_NS2_ISA_EEXsr3std7is_sameISA_cEE5valueEEENS2_ISC_EEXsr3std7is_sameISC_cEE5valueEEEEUlmE_EEmOSA_NS4_18_from_function_tagEmEUlmE_EEvmmSA_lb = comdat any

$_ZN6parlay8sequenceISt4pairIPcmENS_9allocatorIS3_EELb0EEC2EmRKS3_ = comdat any

$_ZN6parlay8internal5timer6reportEdNSt7__cxx1112basic_stringIcSt11char_traitsIcESaIcEEE = comdat any

$_ZN6parlay8sequenceImNS_9allocatorImEELb0EE18initialize_defaultEm = comdat any

$_ZN6parlay12parallel_forIZNS_8sequenceImNS_9allocatorImEELb0EE18initialize_defaultEmEUlmE_EEvmmT_lb = comdat any

$_ZN6parlay12parallel_forIZNS_8internal10sliced_forIZNS1_5scan_INS_5sliceIPmS5_EES6_NS_4plusImEEEEDaRKT_T0_OT1_jbEUlmmmE_EEvmmSB_jEUlmE_EEvmmS9_lb = comdat any

$_ZN6parlay12parallel_forIZNS_8internal10sliced_forIZNS1_5scan_INS_5sliceIPmS5_EES6_NS_4plusImEEEEDaRKT_T0_OT1_jbEUlmmmE0_EEvmmSB_jEUlmE_EEvmmS9_lb = comdat any

$_ZN6parlay8sequenceIjNS_9allocatorIjEELb0EE18initialize_defaultEm = comdat any

$_ZN6parlay12parallel_forIZNS_8sequenceIjNS_9allocatorIjEELb0EE18initialize_defaultEmEUlmE_EEvmmT_lb = comdat any

$_ZN6parlay17sequence_internal13sequence_baseISt4pairIPciENS_9allocatorIS4_EELb0EED2Ev = comdat any

$_ZN6parlay8internal12hazptr_stackIPNS0_15block_allocator5blockEE4pushES4_ = comdat any

$_ZN6parlay8internal14acquire_retireINS0_12hazptr_stackIPNS0_15block_allocator5blockEE4NodeESt14default_deleteIS7_ELm1EEC2ES9_ = comdat any

$_ZN6parlay8internal14acquire_retireINS0_12hazptr_stackIPNS0_15block_allocator5blockEE4NodeESt14default_deleteIS7_ELm1EED2Ev = comdat any

$_ZNSt10unique_ptrIA_N6parlay6paddedImLm128EvEESt14default_deleteIS3_EED2Ev = comdat any

$_ZNSt10unique_ptrIA_N6parlay6paddedISt6vectorIPNS0_8internal12hazptr_stackIPNS3_15block_allocator5blockEE4NodeESaISA_EELm128EvEESt14default_deleteISE_EED2Ev = comdat any

$_ZNSt10unique_ptrIA_N6parlay6paddedIbLm128EvEESt14default_deleteIS3_EED2Ev = comdat any

$_ZNSt10unique_ptrIA_N6parlay6paddedISt6atomicIPNS0_8internal12hazptr_stackIPNS3_15block_allocator5blockEE4NodeEELm128EvEESt14default_deleteISD_EED2Ev = comdat any

$_ZN6parlay8internal14acquire_retireINS0_12hazptr_stackIPvE4NodeESt14default_deleteIS5_ELm1EEC2ES7_ = comdat any

$_ZN6parlay8internal14acquire_retireINS0_12hazptr_stackIPvE4NodeESt14default_deleteIS5_ELm1EED2Ev = comdat any

$_ZNSt10unique_ptrIA_N6parlay6paddedISt6vectorIPNS0_8internal12hazptr_stackIPvE4NodeESaIS8_EELm128EvEESt14default_deleteISC_EED2Ev = comdat any

$_ZNSt10unique_ptrIA_N6parlay6paddedISt6atomicIPNS0_8internal12hazptr_stackIPvE4NodeEELm128EvEESt14default_deleteISB_EED2Ev = comdat any

$_ZN6parlay12parallel_forIZNS_8sequenceIbNS_9allocatorIbEELb0EE15initialize_fillEmRKbEUlmE_EEvmmT_lb = comdat any

$_ZN5timer6reportEdNSt7__cxx1112basic_stringIcSt11char_traitsIcESaIcEEE = comdat any

$_ZN6parlay8internal12hazptr_stackIPvE3popEv = comdat any

$_ZN6parlay8internal15block_allocator8get_listEv = comdat any

$_ZN6parlay8internal12hazptr_stackIPNS0_15block_allocator5blockEE3popEv = comdat any

$_ZN6parlay8internal12hazptr_stackIPSt4byteE4pushES3_ = comdat any

$_ZN6parlay8internal14acquire_retireINS0_12hazptr_stackIPSt4byteE4NodeESt14default_deleteIS6_ELm1EEC2ES8_ = comdat any

$_ZN6parlay8internal14acquire_retireINS0_12hazptr_stackIPSt4byteE4NodeESt14default_deleteIS6_ELm1EED2Ev = comdat any

$_ZNSt10unique_ptrIA_N6parlay6paddedISt6vectorIPNS0_8internal12hazptr_stackIPSt4byteE4NodeESaIS9_EELm128EvEESt14default_deleteISD_EED2Ev = comdat any

$_ZNSt10unique_ptrIA_N6parlay6paddedISt6atomicIPNS0_8internal12hazptr_stackIPSt4byteE4NodeEELm128EvEESt14default_deleteISC_EED2Ev = comdat any

$_ZN6parlay8internal14acquire_retireINS0_12hazptr_stackIPNS0_15block_allocator5blockEE4NodeESt14default_deleteIS7_ELm1EE6retireIPS7_EEvT_ = comdat any

$_ZN6parlay8internal14acquire_retireINS0_12hazptr_stackIPNS0_15block_allocator5blockEE4NodeESt14default_deleteIS7_ELm1EE18work_toward_ejectsEm = comdat any

$_ZNSt10_HashtableIPN6parlay8internal12hazptr_stackIPNS1_15block_allocator5blockEE4NodeES8_SaIS8_ENSt8__detail9_IdentityESt8equal_toIS8_ESt4hashIS8_ENSA_18_Mod_range_hashingENSA_20_Default_ranged_hashENSA_20_Prime_rehash_policyENSA_17_Hashtable_traitsILb0ELb1ELb0EEEE20_M_insert_multi_nodeEPNSA_10_Hash_nodeIS8_Lb0EEEmSO_ = comdat any

$_ZSt9__find_ifIN9__gnu_cxx17__normal_iteratorIPPN6parlay8internal12hazptr_stackIPNS3_15block_allocator5blockEE4NodeESt6vectorISA_SaISA_EEEENS0_5__ops10_Iter_predIZNS3_14acquire_retireIS9_St14default_deleteIS9_ELm1EE18work_toward_ejectsEmEUlT_E0_EEESM_SM_SM_T0_St26random_access_iterator_tag = comdat any

$_ZNSt6vectorIPN6parlay8internal12hazptr_stackIPNS1_15block_allocator5blockEE4NodeESaIS8_EE15_M_range_insertIN9__gnu_cxx17__normal_iteratorIPS8_SA_EEEEvSF_T_SG_St20forward_iterator_tag = comdat any

$_ZNSt18unordered_multisetIPN6parlay8internal12hazptr_stackIPNS1_15block_allocator5blockEE4NodeESt4hashIS8_ESt8equal_toIS8_ESaIS8_EED2Ev = comdat any

$_ZZN6parlay8internal14acquire_retireINS0_12hazptr_stackIPNS0_15block_allocator5blockEE4NodeESt14default_deleteIS7_ELm1EE18work_toward_ejectsEmENKUlT_E0_clIPS7_EEDaSB_ = comdat any

$_ZNSt10_HashtableIPN6parlay8internal12hazptr_stackIPNS1_15block_allocator5blockEE4NodeES8_SaIS8_ENSt8__detail9_IdentityESt8equal_toIS8_ESt4hashIS8_ENSA_18_Mod_range_hashingENSA_20_Default_ranged_hashENSA_20_Prime_rehash_policyENSA_17_Hashtable_traitsILb0ELb1ELb0EEEE13_M_rehash_auxEmSt17integral_constantIbLb0EE = comdat any

$_ZN6parlay8internal14acquire_retireINS0_12hazptr_stackIPvE4NodeESt14default_deleteIS5_ELm1EE6retireIPS5_EEvT_ = comdat any

$_ZN6parlay8internal14acquire_retireINS0_12hazptr_stackIPvE4NodeESt14default_deleteIS5_ELm1EE18work_toward_ejectsEm = comdat any

$_ZNSt10_HashtableIPN6parlay8internal12hazptr_stackIPvE4NodeES6_SaIS6_ENSt8__detail9_IdentityESt8equal_toIS6_ESt4hashIS6_ENS8_18_Mod_range_hashingENS8_20_Default_ranged_hashENS8_20_Prime_rehash_policyENS8_17_Hashtable_traitsILb0ELb1ELb0EEEE20_M_insert_multi_nodeEPNS8_10_Hash_nodeIS6_Lb0EEEmSM_ = comdat any

$_ZSt9__find_ifIN9__gnu_cxx17__normal_iteratorIPPN6parlay8internal12hazptr_stackIPvE4NodeESt6vectorIS8_SaIS8_EEEENS0_5__ops10_Iter_predIZNS3_14acquire_retireIS7_St14default_deleteIS7_ELm1EE18work_toward_ejectsEmEUlT_E0_EEESK_SK_SK_T0_St26random_access_iterator_tag = comdat any

$_ZNSt6vectorIPN6parlay8internal12hazptr_stackIPvE4NodeESaIS6_EE15_M_range_insertIN9__gnu_cxx17__normal_iteratorIPS6_S8_EEEEvSD_T_SE_St20forward_iterator_tag = comdat any

$_ZNSt18unordered_multisetIPN6parlay8internal12hazptr_stackIPvE4NodeESt4hashIS6_ESt8equal_toIS6_ESaIS6_EED2Ev = comdat any

$_ZZN6parlay8internal14acquire_retireINS0_12hazptr_stackIPvE4NodeESt14default_deleteIS5_ELm1EE18work_toward_ejectsEmENKUlT_E0_clIPS5_EEDaS9_ = comdat any

$_ZNSt10_HashtableIPN6parlay8internal12hazptr_stackIPvE4NodeES6_SaIS6_ENSt8__detail9_IdentityESt8equal_toIS6_ESt4hashIS6_ENS8_18_Mod_range_hashingENS8_20_Default_ranged_hashENS8_20_Prime_rehash_policyENS8_17_Hashtable_traitsILb0ELb1ELb0EEEE13_M_rehash_auxEmSt17integral_constantIbLb0EE = comdat any

$_ZN6parlay8internal23default_allocator_sizesEv = comdat any

$_ZN6parlay8internal14pool_allocatorC2ERKSt6vectorImSaImEE = comdat any

$_ZN6parlay8internal14pool_allocatorD2Ev = comdat any

$_ZN6parlay8internal15block_allocatorD2Ev = comdat any

$_ZNSt10unique_ptrIA_N6parlay8internal15block_allocatorENS1_20unique_array_deleterIS2_EEED2Ev = comdat any

$_ZNSt10unique_ptrIA_N6parlay8internal12hazptr_stackIPvEESt14default_deleteIS5_EED2Ev = comdat any

$_ZNSt10unique_ptrIA_mSt14default_deleteIS0_EED2Ev = comdat any

$_ZN6parlay8internal15block_allocator5clearEv = comdat any

$_ZNSt10unique_ptrIA_N6parlay8internal15block_allocator10local_listESt14default_deleteIS4_EED2Ev = comdat any

$_ZN6parlay8internal12hazptr_stackIPNS0_15block_allocator5blockEED2Ev = comdat any

$_ZN6parlay8internal12hazptr_stackIPSt4byteED2Ev = comdat any

$_ZNK6parlay8internal12hazptr_stackIPNS0_15block_allocator5blockEE4sizeEv = comdat any

$_ZN6parlay8internal12hazptr_stackIPSt4byteE3popEv = comdat any

$_ZN6parlay8internal14acquire_retireINS0_12hazptr_stackIPSt4byteE4NodeESt14default_deleteIS6_ELm1EE6retireIPS6_EEvT_ = comdat any

$_ZN6parlay8internal14acquire_retireINS0_12hazptr_stackIPSt4byteE4NodeESt14default_deleteIS6_ELm1EE18work_toward_ejectsEm = comdat any

$_ZNSt10_HashtableIPN6parlay8internal12hazptr_stackIPSt4byteE4NodeES7_SaIS7_ENSt8__detail9_IdentityESt8equal_toIS7_ESt4hashIS7_ENS9_18_Mod_range_hashingENS9_20_Default_ranged_hashENS9_20_Prime_rehash_policyENS9_17_Hashtable_traitsILb0ELb1ELb0EEEE20_M_insert_multi_nodeEPNS9_10_Hash_nodeIS7_Lb0EEEmSN_ = comdat any

$_ZSt9__find_ifIN9__gnu_cxx17__normal_iteratorIPPN6parlay8internal12hazptr_stackIPSt4byteE4NodeESt6vectorIS9_SaIS9_EEEENS0_5__ops10_Iter_predIZNS3_14acquire_retireIS8_St14default_deleteIS8_ELm1EE18work_toward_ejectsEmEUlT_E0_EEESL_SL_SL_T0_St26random_access_iterator_tag = comdat any

$_ZNSt6vectorIPN6parlay8internal12hazptr_stackIPSt4byteE4NodeESaIS7_EE15_M_range_insertIN9__gnu_cxx17__normal_iteratorIPS7_S9_EEEEvSE_T_SF_St20forward_iterator_tag = comdat any

$_ZNSt18unordered_multisetIPN6parlay8internal12hazptr_stackIPSt4byteE4NodeESt4hashIS7_ESt8equal_toIS7_ESaIS7_EED2Ev = comdat any

$_ZZN6parlay8internal14acquire_retireINS0_12hazptr_stackIPSt4byteE4NodeESt14default_deleteIS6_ELm1EE18work_toward_ejectsEmENKUlT_E0_clIPS6_EEDaSA_ = comdat any

$_ZNSt10_HashtableIPN6parlay8internal12hazptr_stackIPSt4byteE4NodeES7_SaIS7_ENSt8__detail9_IdentityESt8equal_toIS7_ESt4hashIS7_ENS9_18_Mod_range_hashingENS9_20_Default_ranged_hashENS9_20_Prime_rehash_policyENS9_17_Hashtable_traitsILb0ELb1ELb0EEEE13_M_rehash_auxEmSt17integral_constantIbLb0EE = comdat any

$_ZSt11make_uniqueIA_N6parlay8internal12hazptr_stackIPvEEENSt8__detail9_MakeUniqIT_E7__arrayEm = comdat any

$_ZN6parlay8internal15block_allocatorC2Emmmmm = comdat any

$_ZN6parlay12parallel_forIZNS_8internal15block_allocator7reserveEmEUlmE_EEvmmT_lb = comdat any

$_ZN6parlay8sequenceIcNS_9allocatorIcEELb1EE15initialize_fillEmRKc = comdat any

$_ZN6parlay12parallel_forIZNS_8sequenceIcNS_9allocatorIcEELb1EE15initialize_fillEmRKcEUlmE_EEvmmT_lb = comdat any

$_ZN6parlay8file_mapC2ERKNSt7__cxx1112basic_stringIcSt11char_traitsIcESaIcEEE = comdat any

$_ZN6parlay12parallel_forIZNS_17sequence_internal13sequence_baseINS_8sequenceImNS_9allocatorImEELb0EEENS4_IS6_EELb0EE12storage_impl11destroy_allEvEUlmE_EEvmmT_lb = comdat any

$_ZN6parlay17sequence_internal13sequence_baseINS_8sequenceImNS_9allocatorImEELb0EEENS3_IS5_EELb0EE12storage_impl18capacitated_buffer11free_bufferERNS3_ISt4byteEE = comdat any

$_ZN6parlay8internal7delayed23block_delayed_flatten_tINS_8sequenceINS3_ImNS_9allocatorImEELb0EEENS4_IS6_EELb0EEEEC2IS8_EEOT_i = comdat any

$_ZN6parlay8internal7delayed23block_delayed_flatten_tINS_8sequenceINS3_ImNS_9allocatorImEELb0EEENS4_IS6_EELb0EEEED2Ev = comdat any

$_ZN6parlay12parallel_forIZNS_17sequence_internal13sequence_baseINS_8sequenceIcNS_9allocatorIcEELb1EEENS4_IS6_EELb0EE12storage_impl11destroy_allEvEUlmE_EEvmmT_lb = comdat any

$_ZN6parlay17sequence_internal13sequence_baseINS_8sequenceIcNS_9allocatorIcEELb1EEENS3_IS5_EELb0EE12storage_impl18capacitated_buffer11free_bufferERNS3_ISt4byteEE = comdat any

$_ZN6parlay8sequenceINS0_IcNS_9allocatorIcEELb1EEENS1_IS3_EELb0EE13uninitializedEm = comdat any

$_ZN6parlay8sequenceIcNS_9allocatorIcEELb1EE16initialize_rangeIPKcEEvT_S7_St26random_access_iterator_tag = comdat any

$_ZN6parlay12parallel_forIZNS_8sequenceIcNS_9allocatorIcEELb1EE16initialize_rangeIPKcEEvT_S8_St26random_access_iterator_tagEUlmE_EEvmmS8_lb = comdat any

$_ZN6parlay17sequence_internal13sequence_baseIPmNS_9allocatorIS2_EELb0EE12storage_impl18capacitated_buffer11free_bufferERNS3_ISt4byteEE = comdat any

$_ZN6parlay17sequence_internal13sequence_baseIPNS_8sequenceImNS_9allocatorImEELb0EEENS3_IS6_EELb0EE12storage_impl18capacitated_buffer11free_bufferERNS3_ISt4byteEE = comdat any

$_ZN6parlay8internal7delayed23block_delayed_flatten_tINS_8sequenceINS3_ImNS_9allocatorImEELb0EEENS4_IS6_EELb0EEEE20initialize_iteratorsEv = comdat any

$_ZN6parlay17sequence_internal13sequence_baseIPmNS_9allocatorIS2_EELb0EED2Ev = comdat any

$_ZN6parlay17sequence_internal13sequence_baseIPNS_8sequenceImNS_9allocatorImEELb0EEENS3_IS6_EELb0EED2Ev = comdat any

$_ZN6parlay8internal7delayed29block_iterable_view_base_dataINS_8sequenceINS3_ImNS_9allocatorImEELb0EEENS4_IS6_EELb0EEEED2Ev = comdat any

$_ZN6parlay8sequenceImNS_9allocatorImEELb0EE16initialize_rangeINS_16delayed_sequenceImmZNS_8internal11delayed_mapIRNS0_IS3_NS1_IS3_EELb0EEEZNS6_7delayed23block_delayed_flatten_tIS9_E20initialize_iteratorsEvEUlOT_E_Li0EEEDaSF_T0_EUlmE_E8iteratorEEEvSE_SE_St26random_access_iterator_tag = comdat any

$_ZN6parlay8sequenceIPNS0_ImNS_9allocatorImEELb0EEENS1_IS4_EELb0EE13uninitializedEm = comdat any

$_ZN6parlay8sequenceIPmNS_9allocatorIS1_EELb0EE13uninitializedEm = comdat any

$_ZN6parlay12parallel_forIZNS_8sequenceImNS_9allocatorImEELb0EE16initialize_rangeINS_16delayed_sequenceImmZNS_8internal11delayed_mapIRNS1_IS4_NS2_IS4_EELb0EEEZNS7_7delayed23block_delayed_flatten_tISA_E20initialize_iteratorsEvEUlOT_E_Li0EEEDaSG_T0_EUlmE_E8iteratorEEEvSF_SF_St26random_access_iterator_tagEUlmE_EEvmmSF_lb = comdat any

$_ZN6parlay12parallel_forIZNS_26uninitialized_relocate_n_aIPmS2_SaImEEEvT_T0_mRT1_EUlmE_EEvmmS4_lb = comdat any

$_ZN6parlay9allocatorImE10deallocateEPmm = comdat any

$_ZN6parlay8internal16chars_to_float_tIdLm18ELl22ELl53EZNS_15chars_to_doubleERKNS_8sequenceIcNS_9allocatorIcEELb1EEEEUlRKT_E_EES8_S7_OT3_ = comdat any

$_ZZN6parlay15chars_to_doubleERKNS_8sequenceIcNS_9allocatorIcEELb1EEEENKUlRKT_E_clIS3_EEDaS8_ = comdat any

$_ZN6parlay8internal14chars_to_int_tImPKcEET_NS_5sliceIT0_S6_EE = comdat any

$_ZN6parlay7flattenIcEEDaONS_8sequenceINS1_IT_NS_9allocatorIS2_EEXsr3std7is_sameIS2_cEE5valueEEENS3_IS5_EEXsr3std7is_sameIS5_cEE5valueEEE = comdat any

$_ZN6parlay13chars_to_fileERKNS_8sequenceIcNS_9allocatorIcEELb1EEERKNSt7__cxx1112basic_stringIcSt11char_traitsIcESaIcEEE = comdat any

$_ZN6parlay17sequence_internal13sequence_baseINS_8sequenceIcNS_9allocatorIcEELb1EEENS3_IS5_EELb0EED2Ev = comdat any

$_ZN6parlay8sequenceImNS_9allocatorImEELb0EEC2IZNS_7flattenIcEEDaONS0_INS0_IT_NS1_IS6_EEXsr3std7is_sameIS6_cEE5valueEEENS1_IS8_EEXsr3std7is_sameIS8_cEE5valueEEEEUlmE_EEmOS6_NS3_18_from_function_tagEm = comdat any

$_ZN6parlay8sequenceIcNS_9allocatorIcEELb1EEC2EmNS3_18_uninitialized_tagE = comdat any

$_ZN6parlay12parallel_forIZNS_7flattenIcEEDaONS_8sequenceINS2_IT_NS_9allocatorIS3_EEXsr3std7is_sameIS3_cEE5valueEEENS4_IS6_EEXsr3std7is_sameIS6_cEE5valueEEEEUlmE0_EEvmmS3_lb = comdat any

$_ZN6parlay12parallel_forIZNS_26uninitialized_relocate_n_aIPcS2_SaIcEEEvT_T0_mRT1_EUlmE_EEvmmS4_lb = comdat any

$_ZN6parlay12parallel_forIZNS_8sequenceImNS_9allocatorImEELb0EEC1IZNS_7flattenIcEEDaONS1_INS1_IT_NS2_IS7_EEXsr3std7is_sameIS7_cEE5valueEEENS2_IS9_EEXsr3std7is_sameIS9_cEE5valueEEEEUlmE_EEmOS7_NS4_18_from_function_tagEmEUlmE_EEvmmS7_lb = comdat any

$_ZN6parlay17sequence_internal13sequence_baseIcNS_9allocatorIcEELb1EE12storage_implC2ERKS5_ = comdat any

$_ZN6parlay7flattenIRNS_8sequenceINS1_IcNS_9allocatorIcEELb1EEENS2_IS4_EELb0EEEEEDaOT_ = comdat any

$_ZN6parlay8sequenceImNS_9allocatorImEELb0EEC2IZNS_7flattenIRNS0_INS0_IcNS1_IcEELb1EEENS1_IS7_EELb0EEEEEDaOT_EUlmE_EEmSC_NS3_18_from_function_tagEm = comdat any

$_ZN6parlay12parallel_forIZZNS_7flattenIRNS_8sequenceINS2_IcNS_9allocatorIcEELb1EEENS3_IS5_EELb0EEEEEDaOT_ENKUlmE0_clEmEUlmE_EEvmmS9_lb = comdat any

$_ZN6parlay12parallel_forIZNS_8sequenceImNS_9allocatorImEELb0EEC1IZNS_7flattenIRNS1_INS1_IcNS2_IcEELb1EEENS2_IS8_EELb0EEEEEDaOT_EUlmE_EEmSD_NS4_18_from_function_tagEmEUlmE_EEvmmSC_lb = comdat any

$_ZN6parlay12parallel_forIZNS_17sequence_internal13sequence_baseIcNS_9allocatorIcEELb1EE12storage_implC1ERKS6_EUlmE_EEvmmT_lb = comdat any

$_ZN6parlay17sequence_internal13sequence_baseISt4pairINS_8sequenceIcNS_9allocatorIcEELb1EEEmENS4_IS7_EELb0EE12storage_implC2ERKSA_ = comdat any

$_ZN11commandLineC2EiPPcNSt7__cxx1112basic_stringIcSt11char_traitsIcESaIcEEE = comdat any

$_ZN11commandLine14getOptionValueENSt7__cxx1112basic_stringIcSt11char_traitsIcESaIcEEE = comdat any

$_ZN11commandLine9getOptionENSt7__cxx1112basic_stringIcSt11char_traitsIcESaIcEEE = comdat any

$_ZN11commandLine17getOptionIntValueENSt7__cxx1112basic_stringIcSt11char_traitsIcESaIcEEEi = comdat any

$_ZZN6parlay8internal21get_default_allocatorEvE17default_allocator = comdat any

$_ZGVZN6parlay8internal21get_default_allocatorEvE17default_allocator = comdat any

$_ZZN6parlay8internal12hazptr_stackIPvE15hazptr_instanceEvE8instance = comdat any

$_ZGVZN6parlay8internal12hazptr_stackIPvE15hazptr_instanceEvE8instance = comdat any

$_ZZN6parlay8internal12hazptr_stackIPSt4byteE15hazptr_instanceEvE8instance = comdat any

$_ZGVZN6parlay8internal12hazptr_stackIPSt4byteE15hazptr_instanceEvE8instance = comdat any

$_ZZN6parlay8internal12hazptr_stackIPNS0_15block_allocator5blockEE15hazptr_instanceEvE8instance = comdat any

$_ZGVZN6parlay8internal12hazptr_stackIPNS0_15block_allocator5blockEE15hazptr_instanceEvE8instance = comdat any

$_ZZN6parlay8internal16chars_to_float_tIdLm18ELl22ELl53EZNS_15chars_to_doubleERKNS_8sequenceIcNS_9allocatorIcEELb1EEEEUlRKT_E_EES8_S7_OT3_E7pow_ten = comdat any

@llvm.global_ctors = appending global [3 x { i32, void ()*, i8* }] [{ i32, void ()*, i8* } { i32 65535, void ()* @__cxx_global_var_init.1, i8* bitcast (i64* @_ZN6parlay8internal31default_allocator_max_pool_sizeE to i8*) }, { i32, void ()*, i8* } { i32 65535, void ()* @_GLOBAL__sub_I_wc.C, i8* null }, { i32, void ()*, i8* } { i32 65535, void ()* @_GLOBAL__sub_I_wcTime.C, i8* null }]
@llvm.used = appending global [2 x i8*] [i8* bitcast (i64* @_ZN6parlay8internal31default_allocator_max_pool_sizeE to i8*), i8* bitcast (i64* @_ZN6parlay8internal31default_allocator_max_pool_sizeE to i8*)], section "llvm.metadata"
@_ZStL8__ioinit = internal global %"class.std::ios_base::Init" zeroinitializer, align 1
@_ZL3_tm = internal global %struct.timer zeroinitializer, align 8
@.str = private unnamed_addr constant [10 x i8] c"PBBS time\00", align 1
@.str.3 = private unnamed_addr constant [12 x i8] c"word counts\00", align 1
@.str.4 = private unnamed_addr constant [24 x i8] c"number of characters = \00", align 1
@.str.6 = private unnamed_addr constant [7 x i8] c"tokens\00", align 1
@.str.7 = private unnamed_addr constant [19 x i8] c"number of words = \00", align 1
@.str.8 = private unnamed_addr constant [13 x i8] c"count by key\00", align 1
@.str.9 = private unnamed_addr constant [17 x i8] c"distinct words: \00", align 1
@.str.10 = private unnamed_addr constant [11 x i8] c"format out\00", align 1
@.str.11 = private unnamed_addr constant [6 x i8] c"i > 0\00", align 1
@.str.12 = private unnamed_addr constant [21 x i8] c"./parlay/utilities.h\00", align 1
@__PRETTY_FUNCTION__._ZN6parlay7log2_upImEEmT_ = private unnamed_addr constant [46 x i8] c"size_t parlay::log2_up(T) [T = unsigned long]\00", align 1
@.str.13 = private unnamed_addr constant [26 x i8] c"vector::_M_realloc_insert\00", align 1
@.str.14 = private unnamed_addr constant [17 x i8] c"bucket_size >= 8\00", align 1
@.str.15 = private unnamed_addr constant [35 x i8] c"./parlay/internal/pool_allocator.h\00", align 1
@__PRETTY_FUNCTION__._ZN6parlay8internal14pool_allocatorC2ERKSt6vectorImSaImEE = private unnamed_addr constant [78 x i8] c"parlay::internal::pool_allocator::pool_allocator(const std::vector<size_t> &)\00", align 1
@.str.16 = private unnamed_addr constant [31 x i8] c"bucket_size > prev_bucket_size\00", align 1
@.str.17 = private unnamed_addr constant [24 x i8] c"vector::_M_range_insert\00", align 1
@.str.19 = private unnamed_addr constant [36 x i8] c"./parlay/internal/block_allocator.h\00", align 1
@__PRETTY_FUNCTION__._ZN6parlay8internal15block_allocator15allocate_blocksEm = private unnamed_addr constant [70 x i8] c"std::byte *parlay::internal::block_allocator::allocate_blocks(size_t)\00", align 1
@.str.20 = private unnamed_addr constant [38 x i8] c"blocks_allocated.load() <= max_blocks\00", align 1
@.str.21 = private unnamed_addr constant [22 x i8] c"capacity() >= desired\00", align 1
@.str.22 = private unnamed_addr constant [34 x i8] c"./parlay/internal/sequence_base.h\00", align 1
@__PRETTY_FUNCTION__._ZN6parlay17sequence_internal13sequence_baseIcNS_9allocatorIcEELb1EE12storage_impl19initialize_capacityEm = private unnamed_addr constant [192 x i8] c"void parlay::sequence_internal::sequence_base<char, parlay::allocator<char>, true>::storage_impl::initialize_capacity(size_t) [T = char, Allocator = parlay::allocator<char>, EnableSSO = true]\00", align 1
@.str.24 = private unnamed_addr constant [54 x i8] c"reinterpret_cast<uintptr_t>(buffer) % alignof(T) == 0\00", align 1
@.str.25 = private unnamed_addr constant [17 x i8] c"./parlay/alloc.h\00", align 1
@.str.26 = private unnamed_addr constant [18 x i8] c"id == worker_id()\00", align 1
@__PRETTY_FUNCTION__._ZN6parlay8internal15block_allocator5allocEv = private unnamed_addr constant [49 x i8] c"void *parlay::internal::block_allocator::alloc()\00", align 1
@.str.27 = private unnamed_addr constant [23 x i8] c"new_size <= capacity()\00", align 1
@__PRETTY_FUNCTION__._ZN6parlay17sequence_internal13sequence_baseIcNS_9allocatorIcEELb1EE12storage_impl8set_sizeEm = private unnamed_addr constant [181 x i8] c"void parlay::sequence_internal::sequence_base<char, parlay::allocator<char>, true>::storage_impl::set_size(size_t) [T = char, Allocator = parlay::allocator<char>, EnableSSO = true]\00", align 1
@.str.28 = private unnamed_addr constant [51 x i8] c"reinterpret_cast<uintptr_t>(ptr) % alignof(T) == 0\00", align 1
@__PRETTY_FUNCTION__._ZN6parlay8internal15block_allocator4freeEPv = private unnamed_addr constant [53 x i8] c"void parlay::internal::block_allocator::free(void *)\00", align 1
@.str.29 = private unnamed_addr constant [3 x i8] c": \00", align 1
@.str.30 = private unnamed_addr constant [14 x i8] c"first <= last\00", align 1
@.str.31 = private unnamed_addr constant [40 x i8] c"./parlay/internal/../delayed_sequence.h\00", align 1
@"__PRETTY_FUNCTION__._ZNK6parlay16delayed_sequenceISt4pairIllES2_ZNS_10map_tokensIRNS_8sequenceIcNS_9allocatorIcEELb1EEERZ10wordCountsRKS7_bE3$_1Z10wordCountsSA_bE3$_2EEDaOT_OT0_OT1_EUlmE1_E4sizeEv" = private unnamed_addr constant [237 x i8] c"size_t parlay::delayed_sequence<std::pair<long, long>, std::pair<long, long>, (lambda at ./parlay/primitives.h:1093:47)>::size() const [T = std::pair<long, long>, V = std::pair<long, long>, F = (lambda at ./parlay/primitives.h:1093:47)]\00", align 1
@__PRETTY_FUNCTION__._ZN6parlay17sequence_internal13sequence_baseISt4pairIllENS_9allocatorIS3_EELb0EE12storage_impl19initialize_capacityEm = private unnamed_addr constant [262 x i8] c"void parlay::sequence_internal::sequence_base<std::pair<long, long>, parlay::allocator<std::pair<long, long>>, false>::storage_impl::initialize_capacity(size_t) [T = std::pair<long, long>, Allocator = parlay::allocator<std::pair<long, long>>, EnableSSO = false]\00", align 1
@.str.32 = private unnamed_addr constant [30 x i8] c"index + delta <= parent->last\00", align 1
@"__PRETTY_FUNCTION__._ZNK6parlay16delayed_sequenceISt4pairIllES2_ZNS_10map_tokensIRNS_8sequenceIcNS_9allocatorIcEELb1EEERZ10wordCountsRKS7_bE3$_1Z10wordCountsSA_bE3$_2EEDaOT_OT0_OT1_EUlmE1_E8iteratorplEm" = private unnamed_addr constant [286 x i8] c"parlay::delayed_sequence::iterator parlay::delayed_sequence<std::pair<long, long>, std::pair<long, long>, (lambda at ./parlay/primitives.h:1093:47)>::iterator::operator+(size_t) const [T = std::pair<long, long>, V = std::pair<long, long>, F = (lambda at ./parlay/primitives.h:1093:47)]\00", align 1
@.str.33 = private unnamed_addr constant [21 x i8] c"index < parent->last\00", align 1
@"__PRETTY_FUNCTION__._ZN6parlay16delayed_sequenceISt4pairIllES2_ZNS_10map_tokensIRNS_8sequenceIcNS_9allocatorIcEELb1EEERZ10wordCountsRKS7_bE3$_1Z10wordCountsSA_bE3$_2EEDaOT_OT0_OT1_EUlmE1_E8iteratorppEv" = private unnamed_addr constant [276 x i8] c"parlay::delayed_sequence::iterator &parlay::delayed_sequence<std::pair<long, long>, std::pair<long, long>, (lambda at ./parlay/primitives.h:1093:47)>::iterator::operator++() [T = std::pair<long, long>, V = std::pair<long, long>, F = (lambda at ./parlay/primitives.h:1093:47)]\00", align 1
@__PRETTY_FUNCTION__._ZNK6parlay16delayed_sequenceImmZNS_4iotaImEEDaT_EUlmE_E4sizeEv = private unnamed_addr constant [203 x i8] c"size_t parlay::delayed_sequence<unsigned long, unsigned long, (lambda at ./parlay/primitives.h:966:44)>::size() const [T = unsigned long, V = unsigned long, F = (lambda at ./parlay/primitives.h:966:44)]\00", align 1
@__PRETTY_FUNCTION__._ZN6parlay17sequence_internal13sequence_baseIPcNS_9allocatorIS2_EELb0EE12storage_impl19initialize_capacityEm = private unnamed_addr constant [202 x i8] c"void parlay::sequence_internal::sequence_base<char *, parlay::allocator<char *>, false>::storage_impl::initialize_capacity(size_t) [T = char *, Allocator = parlay::allocator<char *>, EnableSSO = false]\00", align 1
@__PRETTY_FUNCTION__._ZNK6parlay16delayed_sequenceImmZNS_4iotaImEEDaT_EUlmE_E8iteratorplEm = private unnamed_addr constant [252 x i8] c"parlay::delayed_sequence::iterator parlay::delayed_sequence<unsigned long, unsigned long, (lambda at ./parlay/primitives.h:966:44)>::iterator::operator+(size_t) const [T = unsigned long, V = unsigned long, F = (lambda at ./parlay/primitives.h:966:44)]\00", align 1
@__PRETTY_FUNCTION__._ZN6parlay16delayed_sequenceImmZNS_4iotaImEEDaT_EUlmE_E8iteratorppEv = private unnamed_addr constant [242 x i8] c"parlay::delayed_sequence::iterator &parlay::delayed_sequence<unsigned long, unsigned long, (lambda at ./parlay/primitives.h:966:44)>::iterator::operator++() [T = unsigned long, V = unsigned long, F = (lambda at ./parlay/primitives.h:966:44)]\00", align 1
@.str.34 = private unnamed_addr constant [22 x i8] c"collect reduce sparse\00", align 1
@.str.35 = private unnamed_addr constant [13 x i8] c"integer sort\00", align 1
@.str.36 = private unnamed_addr constant [11 x i8] c"block hash\00", align 1
@.str.37 = private unnamed_addr constant [11 x i8] c"j == count\00", align 1
@.str.38 = private unnamed_addr constant [35 x i8] c"./parlay/internal/collect_reduce.h\00", align 1
@"__PRETTY_FUNCTION__._ZN6parlay8internal25seq_collect_reduce_sparseINS_22uninitialized_copy_tagENS_5sliceIPKPcS6_EENS_19count_by_key_helperIS4_mRZ10wordCountsRKNS_8sequenceIcNS_9allocatorIcEELb1EEEbE3$_3RZ10wordCountsSE_bE3$_4EEEEDaT0_RKT1_" = private unnamed_addr constant [288 x i8] c"auto parlay::internal::seq_collect_reduce_sparse(Slice, const Helper &) [assignment_tag = parlay::uninitialized_copy_tag, Slice = parlay::slice<char *const *, char *const *>, Helper = parlay::count_by_key_helper<char *, unsigned long, (lambda at wc.C:58:18) &, (lambda at wc.C:65:14) &>]\00", align 1
@__PRETTY_FUNCTION__._ZN6parlay9allocatorISt4pairIPcmEE8allocateEm = private unnamed_addr constant [112 x i8] c"T *parlay::allocator<std::pair<char *, unsigned long>>::allocate(size_t) [T = std::pair<char *, unsigned long>]\00", align 1
@__PRETTY_FUNCTION__._ZN6parlay17sequence_internal13sequence_baseIbNS_9allocatorIbEELb0EE12storage_impl19initialize_capacityEm = private unnamed_addr constant [194 x i8] c"void parlay::sequence_internal::sequence_base<bool, parlay::allocator<bool>, false>::storage_impl::initialize_capacity(size_t) [T = bool, Allocator = parlay::allocator<bool>, EnableSSO = false]\00", align 1
@__PRETTY_FUNCTION__._ZN6parlay17sequence_internal13sequence_baseIbNS_9allocatorIbEELb0EE12storage_impl8set_sizeEm = private unnamed_addr constant [183 x i8] c"void parlay::sequence_internal::sequence_base<bool, parlay::allocator<bool>, false>::storage_impl::set_size(size_t) [T = bool, Allocator = parlay::allocator<bool>, EnableSSO = false]\00", align 1
@__PRETTY_FUNCTION__._ZN6parlay17sequence_internal13sequence_baseISt4pairIPcmENS_9allocatorIS4_EELb0EE12storage_impl19initialize_capacityEm = private unnamed_addr constant [306 x i8] c"void parlay::sequence_internal::sequence_base<std::pair<char *, unsigned long>, parlay::allocator<std::pair<char *, unsigned long>>, false>::storage_impl::initialize_capacity(size_t) [T = std::pair<char *, unsigned long>, Allocator = parlay::allocator<std::pair<char *, unsigned long>>, EnableSSO = false]\00", align 1
@__PRETTY_FUNCTION__._ZN6parlay17sequence_internal13sequence_baseISt4pairIPcmENS_9allocatorIS4_EELb0EE12storage_impl8set_sizeEm = private unnamed_addr constant [295 x i8] c"void parlay::sequence_internal::sequence_base<std::pair<char *, unsigned long>, parlay::allocator<std::pair<char *, unsigned long>>, false>::storage_impl::set_size(size_t) [T = std::pair<char *, unsigned long>, Allocator = parlay::allocator<std::pair<char *, unsigned long>>, EnableSSO = false]\00", align 1
@__PRETTY_FUNCTION__._ZN6parlay9allocatorISt4pairIPcmEE10deallocateEPS3_m = private unnamed_addr constant [121 x i8] c"void parlay::allocator<std::pair<char *, unsigned long>>::deallocate(T *, size_t) [T = std::pair<char *, unsigned long>]\00", align 1
@__PRETTY_FUNCTION__._ZN6parlay17sequence_internal13sequence_baseISt4pairIPciENS_9allocatorIS4_EELb0EE12storage_impl19initialize_capacityEm = private unnamed_addr constant [266 x i8] c"void parlay::sequence_internal::sequence_base<std::pair<char *, int>, parlay::allocator<std::pair<char *, int>>, false>::storage_impl::initialize_capacity(size_t) [T = std::pair<char *, int>, Allocator = parlay::allocator<std::pair<char *, int>>, EnableSSO = false]\00", align 1
@__PRETTY_FUNCTION__._ZN6parlay17sequence_internal13sequence_baseISt4pairIPciENS_9allocatorIS4_EELb0EE12storage_impl8set_sizeEm = private unnamed_addr constant [255 x i8] c"void parlay::sequence_internal::sequence_base<std::pair<char *, int>, parlay::allocator<std::pair<char *, int>>, false>::storage_impl::set_size(size_t) [T = std::pair<char *, int>, Allocator = parlay::allocator<std::pair<char *, int>>, EnableSSO = false]\00", align 1
@__PRETTY_FUNCTION__._ZN6parlay9allocatorIPcE8allocateEm = private unnamed_addr constant [60 x i8] c"T *parlay::allocator<char *>::allocate(size_t) [T = char *]\00", align 1
@.str.39 = private unnamed_addr constant [16 x i8] c"n == Out.size()\00", align 1
@.str.40 = private unnamed_addr constant [34 x i8] c"./parlay/internal/counting_sort.h\00", align 1
@"__PRETTY_FUNCTION__._ZN6parlay8internal10count_sortINS_22uninitialized_copy_tagEPKPcPS3_NS_16delayed_sequenceImmZNS0_22collect_reduce_sparse_IS2_NS_5sliceIS5_S5_EENS_19count_by_key_helperIS3_mRZ10wordCountsRKNS_8sequenceIcNS_9allocatorIcEELb1EEEbE3$_3RZ10wordCountsSH_bE3$_4EEEEDaT0_RKT1_EUlmE_E8iteratorEEEDaNS9_ISN_SN_EENS9_ISO_SO_EENS9_IT2_SW_EEmfb" = private unnamed_addr constant [388 x i8] c"auto parlay::internal::count_sort(slice<InIterator, InIterator>, slice<OutIterator, OutIterator>, slice<KeyIterator, KeyIterator>, size_t, float, bool) [assignment_tag = parlay::uninitialized_copy_tag, InIterator = char *const *, OutIterator = char **, KeyIterator = parlay::delayed_sequence<unsigned long, unsigned long, (lambda at ./parlay/internal/collect_reduce.h:305:35)>::iterator]\00", align 1
@.str.41 = private unnamed_addr constant [17 x i8] c"n == Keys.size()\00", align 1
@.str.42 = private unnamed_addr constant [11 x i8] c"total == n\00", align 1
@"__PRETTY_FUNCTION__._ZN6parlay8internal11count_sort_INS_22uninitialized_copy_tagEjPKPcPS3_NS_16delayed_sequenceImmZNS0_22collect_reduce_sparse_IS2_NS_5sliceIS5_S5_EENS_19count_by_key_helperIS3_mRZ10wordCountsRKNS_8sequenceIcNS_9allocatorIcEELb1EEEbE3$_3RZ10wordCountsSH_bE3$_4EEEEDaT0_RKT1_EUlmE_E8iteratorEEESt4pairINSC_ImNSD_ImEELb0EEEbENS9_ISO_SO_EENS9_IT2_SZ_EENS9_IT3_S11_EEmfb" = private unnamed_addr constant [443 x i8] c"std::pair<sequence<size_t>, bool> parlay::internal::count_sort_(slice<InIterator, InIterator>, slice<OutIterator, OutIterator>, slice<KeyIterator, KeyIterator>, size_t, float, bool) [assignment_tag = parlay::uninitialized_copy_tag, s_size_t = unsigned int, InIterator = char *const *, OutIterator = char **, KeyIterator = parlay::delayed_sequence<unsigned long, unsigned long, (lambda at ./parlay/internal/collect_reduce.h:305:35)>::iterator]\00", align 1
@.str.43 = private unnamed_addr constant [16 x i8] c"k < num_buckets\00", align 1
@"__PRETTY_FUNCTION__._ZN6parlay8internal10seq_count_INS_5sliceIPKPcS5_EEPmNS2_INS_16delayed_sequenceImmZNS0_22collect_reduce_sparse_INS_22uninitialized_copy_tagES6_NS_19count_by_key_helperIS3_mRZ10wordCountsRKNS_8sequenceIcNS_9allocatorIcEELb1EEEbE3$_3RZ10wordCountsSH_bE3$_4EEEEDaT0_RKT1_EUlmE_E8iteratorEST_EEEEvT_SO_SN_m" = private unnamed_addr constant [425 x i8] c"void parlay::internal::seq_count_(InSeq, KeySeq, CountIterator, size_t) [InSeq = parlay::slice<char *const *, char *const *>, CountIterator = unsigned long *, KeySeq = parlay::slice<parlay::delayed_sequence<unsigned long, unsigned long, (lambda at ./parlay/internal/collect_reduce.h:305:35)>::iterator, parlay::delayed_sequence<unsigned long, unsigned long, (lambda at ./parlay/internal/collect_reduce.h:305:35)>::iterator>]\00", align 1
@__PRETTY_FUNCTION__._ZN6parlay17sequence_internal13sequence_baseImNS_9allocatorImEELb0EE12storage_impl19initialize_capacityEm = private unnamed_addr constant [230 x i8] c"void parlay::sequence_internal::sequence_base<unsigned long, parlay::allocator<unsigned long>, false>::storage_impl::initialize_capacity(size_t) [T = unsigned long, Allocator = parlay::allocator<unsigned long>, EnableSSO = false]\00", align 1
@__PRETTY_FUNCTION__._ZN6parlay17sequence_internal13sequence_baseImNS_9allocatorImEELb0EE12storage_impl8set_sizeEm = private unnamed_addr constant [219 x i8] c"void parlay::sequence_internal::sequence_base<unsigned long, parlay::allocator<unsigned long>, false>::storage_impl::set_size(size_t) [T = unsigned long, Allocator = parlay::allocator<unsigned long>, EnableSSO = false]\00", align 1
@__PRETTY_FUNCTION__._ZN6parlay17sequence_internal13sequence_baseIjNS_9allocatorIjEELb0EE12storage_impl19initialize_capacityEm = private unnamed_addr constant [226 x i8] c"void parlay::sequence_internal::sequence_base<unsigned int, parlay::allocator<unsigned int>, false>::storage_impl::initialize_capacity(size_t) [T = unsigned int, Allocator = parlay::allocator<unsigned int>, EnableSSO = false]\00", align 1
@__PRETTY_FUNCTION__._ZN6parlay17sequence_internal13sequence_baseIjNS_9allocatorIjEELb0EE12storage_impl8set_sizeEm = private unnamed_addr constant [215 x i8] c"void parlay::sequence_internal::sequence_base<unsigned int, parlay::allocator<unsigned int>, false>::storage_impl::set_size(size_t) [T = unsigned int, Allocator = parlay::allocator<unsigned int>, EnableSSO = false]\00", align 1
@"__PRETTY_FUNCTION__._ZN6parlay8internal10seq_count_INS_5sliceIPKPcS5_EEPjNS2_INS_16delayed_sequenceImmZNS0_22collect_reduce_sparse_INS_22uninitialized_copy_tagES6_NS_19count_by_key_helperIS3_mRZ10wordCountsRKNS_8sequenceIcNS_9allocatorIcEELb1EEEbE3$_3RZ10wordCountsSH_bE3$_4EEEEDaT0_RKT1_EUlmE_E8iteratorEST_EEEEvT_SO_SN_m" = private unnamed_addr constant [424 x i8] c"void parlay::internal::seq_count_(InSeq, KeySeq, CountIterator, size_t) [InSeq = parlay::slice<char *const *, char *const *>, CountIterator = unsigned int *, KeySeq = parlay::slice<parlay::delayed_sequence<unsigned long, unsigned long, (lambda at ./parlay/internal/collect_reduce.h:305:35)>::iterator, parlay::delayed_sequence<unsigned long, unsigned long, (lambda at ./parlay/internal/collect_reduce.h:305:35)>::iterator>]\00", align 1
@"__PRETTY_FUNCTION__._ZNK6parlay16delayed_sequenceImmZNS_8internal22collect_reduce_sparse_INS_22uninitialized_copy_tagENS_5sliceIPKPcS7_EENS_19count_by_key_helperIS5_mRZ10wordCountsRKNS_8sequenceIcNS_9allocatorIcEELb1EEEbE3$_3RZ10wordCountsSF_bE3$_4EEEEDaT0_RKT1_EUlmE_E8iteratorplEm" = private unnamed_addr constant [278 x i8] c"parlay::delayed_sequence::iterator parlay::delayed_sequence<unsigned long, unsigned long, (lambda at ./parlay/internal/collect_reduce.h:305:35)>::iterator::operator+(size_t) const [T = unsigned long, V = unsigned long, F = (lambda at ./parlay/internal/collect_reduce.h:305:35)]\00", align 1
@__PRETTY_FUNCTION__._ZN6parlay17sequence_internal13sequence_baseIPPcNS_9allocatorIS3_EELb0EE12storage_impl19initialize_capacityEm = private unnamed_addr constant [206 x i8] c"void parlay::sequence_internal::sequence_base<char **, parlay::allocator<char **>, false>::storage_impl::initialize_capacity(size_t) [T = char **, Allocator = parlay::allocator<char **>, EnableSSO = false]\00", align 1
@"__PRETTY_FUNCTION__._ZN6parlay8internal11count_sort_INS_22uninitialized_copy_tagEmPKPcPS3_NS_16delayed_sequenceImmZNS0_22collect_reduce_sparse_IS2_NS_5sliceIS5_S5_EENS_19count_by_key_helperIS3_mRZ10wordCountsRKNS_8sequenceIcNS_9allocatorIcEELb1EEEbE3$_3RZ10wordCountsSH_bE3$_4EEEEDaT0_RKT1_EUlmE_E8iteratorEEESt4pairINSC_ImNSD_ImEELb0EEEbENS9_ISO_SO_EENS9_IT2_SZ_EENS9_IT3_S11_EEmfb" = private unnamed_addr constant [444 x i8] c"std::pair<sequence<size_t>, bool> parlay::internal::count_sort_(slice<InIterator, InIterator>, slice<OutIterator, OutIterator>, slice<KeyIterator, KeyIterator>, size_t, float, bool) [assignment_tag = parlay::uninitialized_copy_tag, s_size_t = unsigned long, InIterator = char *const *, OutIterator = char **, KeyIterator = parlay::delayed_sequence<unsigned long, unsigned long, (lambda at ./parlay/internal/collect_reduce.h:305:35)>::iterator]\00", align 1
@"__PRETTY_FUNCTION__._ZN6parlay8internal25seq_collect_reduce_sparseINS_26uninitialized_relocate_tagENS_5sliceIPPcS5_EENS_19count_by_key_helperIS4_mRZ10wordCountsRKNS_8sequenceIcNS_9allocatorIcEELb1EEEbE3$_3RZ10wordCountsSD_bE3$_4EEEEDaT0_RKT1_" = private unnamed_addr constant [280 x i8] c"auto parlay::internal::seq_collect_reduce_sparse(Slice, const Helper &) [assignment_tag = parlay::uninitialized_relocate_tag, Slice = parlay::slice<char **, char **>, Helper = parlay::count_by_key_helper<char *, unsigned long, (lambda at wc.C:58:18) &, (lambda at wc.C:65:14) &>]\00", align 1
@__PRETTY_FUNCTION__._ZN6parlay9allocatorIPcE10deallocateEPS1_m = private unnamed_addr constant [69 x i8] c"void parlay::allocator<char *>::deallocate(T *, size_t) [T = char *]\00", align 1
@_ZStL8__ioinit.2 = internal global %"class.std::ios_base::Init" zeroinitializer, align 1
@__dso_handle = external hidden global i8
@_ZN6parlay8internal31default_allocator_max_pool_sizeE = linkonce_odr dso_local global i64 0, comdat, align 8
@_ZGVN6parlay8internal31default_allocator_max_pool_sizeE = linkonce_odr dso_local global i64 0, comdat($_ZN6parlay8internal31default_allocator_max_pool_sizeE), align 8
@_ZSt4cout = external dso_local global %"class.std::basic_ostream", align 8
@.str.5 = private unnamed_addr constant [22 x i8] c"Unable to open file: \00", align 1
@_ZN7benchIO11intHeaderIOB5cxx11E = dso_local global %"class.std::__cxx11::basic_string" zeroinitializer, align 8
@.str.3.3 = private unnamed_addr constant [12 x i8] c"sequenceInt\00", align 1
@_ZN7benchIO8is_spaceE = internal global %"class.std::ios_base::Init" undef, align 1
@.str.4.25 = private unnamed_addr constant [15 x i8] c"sequenceDouble\00", align 1
@.str.5.26 = private unnamed_addr constant [13 x i8] c"sequenceChar\00", align 1
@.str.6.27 = private unnamed_addr constant [16 x i8] c"sequenceIntPair\00", align 1
@.str.7.28 = private unnamed_addr constant [22 x i8] c"sequenceStringIntPair\00", align 1
@.str.8.29 = private unnamed_addr constant [19 x i8] c"sequenceDoublePair\00", align 1
@.str.9.30 = private unnamed_addr constant [35 x i8] c"writeSeqToFile: type not supported\00", align 1
@.str.10.37 = private unnamed_addr constant [38 x i8] c"[-o <outFile>] [-r <rounds>] <inFile>\00", align 1
@.str.14.18 = private unnamed_addr constant [51 x i8] c"reinterpret_cast<uintptr_t>(ptr) % alignof(T) == 0\00", align 1
@.str.15.17 = private unnamed_addr constant [24 x i8] c"../bench/parlay/alloc.h\00", align 1
@_ZZN6parlay8internal21get_default_allocatorEvE17default_allocator = linkonce_odr dso_local global %"struct.parlay::internal::pool_allocator" zeroinitializer, comdat, align 8
@_ZGVZN6parlay8internal21get_default_allocatorEvE17default_allocator = linkonce_odr dso_local global i64 0, comdat, align 8
@_ZZN6parlay8internal12hazptr_stackIPvE15hazptr_instanceEvE8instance = linkonce_odr dso_local global %"class.parlay::internal::acquire_retire" zeroinitializer, comdat, align 8
@_ZGVZN6parlay8internal12hazptr_stackIPvE15hazptr_instanceEvE8instance = linkonce_odr dso_local global i64 0, comdat, align 8
@_ZZN6parlay8internal12hazptr_stackIPSt4byteE15hazptr_instanceEvE8instance = linkonce_odr dso_local global %"class.parlay::internal::acquire_retire.137" zeroinitializer, comdat, align 8
@_ZGVZN6parlay8internal12hazptr_stackIPSt4byteE15hazptr_instanceEvE8instance = linkonce_odr dso_local global i64 0, comdat, align 8
@_ZZN6parlay8internal12hazptr_stackIPNS0_15block_allocator5blockEE15hazptr_instanceEvE8instance = linkonce_odr dso_local global %"class.parlay::internal::acquire_retire.179" zeroinitializer, comdat, align 8
@_ZGVZN6parlay8internal12hazptr_stackIPNS0_15block_allocator5blockEE15hazptr_instanceEvE8instance = linkonce_odr dso_local global i64 0, comdat, align 8
@.str.27.19 = private unnamed_addr constant [9 x i8] c"fd != -1\00", align 1
@.str.28.20 = private unnamed_addr constant [53 x i8] c"../bench/parlay/internal/posix/file_map_impl_posix.h\00", align 1
@__PRETTY_FUNCTION__._ZN6parlay8file_mapC2ERKNSt7__cxx1112basic_stringIcSt11char_traitsIcESaIcEEE = private unnamed_addr constant [48 x i8] c"parlay::file_map::file_map(const std::string &)\00", align 1
@.str.29.21 = private unnamed_addr constant [16 x i8] c"fstat_res != -1\00", align 1
@.str.30.22 = private unnamed_addr constant [42 x i8] c"((((sb.st_mode)) & 0170000) == (0100000))\00", align 1
@.str.31.23 = private unnamed_addr constant [19 x i8] c"p != ((void *) -1)\00", align 1
@.str.32.24 = private unnamed_addr constant [14 x i8] c"close_p != -1\00", align 1
@_ZZN6parlay8internal16chars_to_float_tIdLm18ELl22ELl53EZNS_15chars_to_doubleERKNS_8sequenceIcNS_9allocatorIcEELb1EEEEUlRKT_E_EES8_S7_OT3_E7pow_ten = linkonce_odr dso_local local_unnamed_addr constant [23 x double] [double 1.000000e+00, double 1.000000e+01, double 1.000000e+02, double 1.000000e+03, double 1.000000e+04, double 1.000000e+05, double 1.000000e+06, double 1.000000e+07, double 1.000000e+08, double 1.000000e+09, double 1.000000e+10, double 1.000000e+11, double 1.000000e+12, double 1.000000e+13, double 1.000000e+14, double 1.000000e+15, double 1.000000e+16, double 1.000000e+17, double 1.000000e+18, double 1.000000e+19, double 1.000000e+20, double 1.000000e+21, double 1.000000e+22], comdat, align 16
@.str.33.31 = private unnamed_addr constant [31 x i8] c"str[i] == '.' || str[i] == ','\00", align 1
@.str.34.32 = private unnamed_addr constant [21 x i8] c"../bench/parlay/io.h\00", align 1
@__PRETTY_FUNCTION__._ZN6parlay8internal16chars_to_float_tIdLm18ELl22ELl53EZNS_15chars_to_doubleERKNS_8sequenceIcNS_9allocatorIcEELb1EEEEUlRKT_E_EES8_S7_OT3_ = private unnamed_addr constant [206 x i8] c"Float_ parlay::internal::chars_to_float_t(const parlay::chars &, FallbackF &&) [Float_ = double, max_len = 18UL, max_exp = 22L, max_man = 53L, FallbackF = (lambda at ../bench/common/../parlay/io.h:257:60)]\00", align 1
@.str.35.33 = private unnamed_addr constant [8 x i8] c"i == sz\00", align 1
@.str.36.34 = private unnamed_addr constant [5 x i8] c"stod\00", align 1
@.str.37.6 = private unnamed_addr constant [22 x i8] c"capacity() >= desired\00", align 1
@.str.38.7 = private unnamed_addr constant [41 x i8] c"../bench/parlay/internal/sequence_base.h\00", align 1
@__PRETTY_FUNCTION__._ZN6parlay17sequence_internal13sequence_baseImNS_9allocatorImEELb0EE12storage_impl19initialize_capacityEm.14 = private unnamed_addr constant [230 x i8] c"void parlay::sequence_internal::sequence_base<unsigned long, parlay::allocator<unsigned long>, false>::storage_impl::initialize_capacity(size_t) [T = unsigned long, Allocator = parlay::allocator<unsigned long>, EnableSSO = false]\00", align 1
@.str.40.16 = private unnamed_addr constant [54 x i8] c"reinterpret_cast<uintptr_t>(buffer) % alignof(T) == 0\00", align 1
@.str.41.9 = private unnamed_addr constant [23 x i8] c"new_size <= capacity()\00", align 1
@__PRETTY_FUNCTION__._ZN6parlay17sequence_internal13sequence_baseImNS_9allocatorImEELb0EE12storage_impl8set_sizeEm.15 = private unnamed_addr constant [219 x i8] c"void parlay::sequence_internal::sequence_base<unsigned long, parlay::allocator<unsigned long>, false>::storage_impl::set_size(size_t) [T = unsigned long, Allocator = parlay::allocator<unsigned long>, EnableSSO = false]\00", align 1
@__PRETTY_FUNCTION__._ZN6parlay17sequence_internal13sequence_baseIcNS_9allocatorIcEELb1EE12storage_impl19initialize_capacityEm.8 = private unnamed_addr constant [192 x i8] c"void parlay::sequence_internal::sequence_base<char, parlay::allocator<char>, true>::storage_impl::initialize_capacity(size_t) [T = char, Allocator = parlay::allocator<char>, EnableSSO = true]\00", align 1
@__PRETTY_FUNCTION__._ZN6parlay17sequence_internal13sequence_baseIcNS_9allocatorIcEELb1EE12storage_impl8set_sizeEm.10 = private unnamed_addr constant [181 x i8] c"void parlay::sequence_internal::sequence_base<char, parlay::allocator<char>, true>::storage_impl::set_size(size_t) [T = char, Allocator = parlay::allocator<char>, EnableSSO = true]\00", align 1
@__PRETTY_FUNCTION__._ZN6parlay17sequence_internal13sequence_baseINS_8sequenceIcNS_9allocatorIcEELb1EEENS3_IS5_EELb0EE12storage_impl19initialize_capacityEm = private unnamed_addr constant [390 x i8] c"void parlay::sequence_internal::sequence_base<parlay::sequence<char, parlay::allocator<char>, true>, parlay::allocator<parlay::sequence<char, parlay::allocator<char>, true>>, false>::storage_impl::initialize_capacity(size_t) [T = parlay::sequence<char, parlay::allocator<char>, true>, Allocator = parlay::allocator<parlay::sequence<char, parlay::allocator<char>, true>>, EnableSSO = false]\00", align 1
@__PRETTY_FUNCTION__._ZN6parlay17sequence_internal13sequence_baseINS_8sequenceIcNS_9allocatorIcEELb1EEENS3_IS5_EELb0EE12storage_impl8set_sizeEm = private unnamed_addr constant [379 x i8] c"void parlay::sequence_internal::sequence_base<parlay::sequence<char, parlay::allocator<char>, true>, parlay::allocator<parlay::sequence<char, parlay::allocator<char>, true>>, false>::storage_impl::set_size(size_t) [T = parlay::sequence<char, parlay::allocator<char>, true>, Allocator = parlay::allocator<parlay::sequence<char, parlay::allocator<char>, true>>, EnableSSO = false]\00", align 1
@.str.42.36 = private unnamed_addr constant [4 x i8] c"%lu\00", align 1
@.str.43.35 = private unnamed_addr constant [22 x i8] c"file_stream.is_open()\00", align 1
@__PRETTY_FUNCTION__._ZN6parlay13chars_to_fileERKNS_8sequenceIcNS_9allocatorIcEELb1EEERKNSt7__cxx1112basic_stringIcSt11char_traitsIcESaIcEEE = private unnamed_addr constant [71 x i8] c"void parlay::chars_to_file(const parlay::chars &, const std::string &)\00", align 1
@_ZTVSt14basic_ofstreamIcSt11char_traitsIcEE = external dso_local unnamed_addr constant { [5 x i8*], [5 x i8*] }, align 8
@_ZTTSt14basic_ofstreamIcSt11char_traitsIcEE = external unnamed_addr constant [4 x i8*], align 8
@_ZTVSt9basic_iosIcSt11char_traitsIcEE = external dso_local unnamed_addr constant { [4 x i8*] }, align 8
@_ZTVSt13basic_filebufIcSt11char_traitsIcEE = external dso_local unnamed_addr constant { [16 x i8*] }, align 8
@_ZTVSt15basic_streambufIcSt11char_traitsIcEE = external dso_local unnamed_addr constant { [16 x i8*] }, align 8
@.str.45 = private unnamed_addr constant [6 x i8] c"-help\00", align 1
@.str.46 = private unnamed_addr constant [8 x i8] c"usage: \00", align 1
@.str.47 = private unnamed_addr constant [2 x i8] c" \00", align 1
@.str.48 = private unnamed_addr constant [50 x i8] c"basic_string: construction from null is not valid\00", align 1
@_ZTVSt14basic_ifstreamIcSt11char_traitsIcEE = external dso_local unnamed_addr constant { [5 x i8*], [5 x i8*] }, align 8
@_ZTTSt14basic_ifstreamIcSt11char_traitsIcEE = external unnamed_addr constant [4 x i8*], align 8
@.str.49 = private unnamed_addr constant [14 x i8] c"first <= last\00", align 1
@.str.50 = private unnamed_addr constant [47 x i8] c"../bench/parlay/internal/../delayed_sequence.h\00", align 1
@__PRETTY_FUNCTION__._ZNK6parlay16delayed_sequenceImmZNS_4iotaImEEDaT_EUlmE_E4sizeEv.12 = private unnamed_addr constant [237 x i8] c"size_t parlay::delayed_sequence<unsigned long, unsigned long, (lambda at ../bench/common/../parlay/primitives.h:966:44)>::size() const [T = unsigned long, V = unsigned long, F = (lambda at ../bench/common/../parlay/primitives.h:966:44)]\00", align 1
@__PRETTY_FUNCTION__._ZN6parlay9allocatorImE8allocateEm = private unnamed_addr constant [74 x i8] c"T *parlay::allocator<unsigned long>::allocate(size_t) [T = unsigned long]\00", align 1
@.str.51 = private unnamed_addr constant [21 x i8] c"index < parent->last\00", align 1
@__PRETTY_FUNCTION__._ZN6parlay16delayed_sequenceImmZNS_4iotaImEEDaT_EUlmE_E8iteratorppEv.11 = private unnamed_addr constant [276 x i8] c"parlay::delayed_sequence::iterator &parlay::delayed_sequence<unsigned long, unsigned long, (lambda at ../bench/common/../parlay/primitives.h:966:44)>::iterator::operator++() [T = unsigned long, V = unsigned long, F = (lambda at ../bench/common/../parlay/primitives.h:966:44)]\00", align 1
@__PRETTY_FUNCTION__._ZN6parlay9allocatorImE10deallocateEPmm = private unnamed_addr constant [83 x i8] c"void parlay::allocator<unsigned long>::deallocate(T *, size_t) [T = unsigned long]\00", align 1
@.str.52 = private unnamed_addr constant [30 x i8] c"index + delta <= parent->last\00", align 1
@__PRETTY_FUNCTION__._ZNK6parlay16delayed_sequenceImmZNS_4iotaImEEDaT_EUlmE_E8iteratorplEm.13 = private unnamed_addr constant [286 x i8] c"parlay::delayed_sequence::iterator parlay::delayed_sequence<unsigned long, unsigned long, (lambda at ../bench/common/../parlay/primitives.h:966:44)>::iterator::operator+(size_t) const [T = unsigned long, V = unsigned long, F = (lambda at ../bench/common/../parlay/primitives.h:966:44)]\00", align 1
@__PRETTY_FUNCTION__._ZN6parlay17sequence_internal13sequence_baseIPNS_8sequenceImNS_9allocatorImEELb0EEENS3_IS6_EELb0EE12storage_impl19initialize_capacityEm = private unnamed_addr constant [474 x i8] c"void parlay::sequence_internal::sequence_base<parlay::sequence<unsigned long, parlay::allocator<unsigned long>, false> *, parlay::allocator<parlay::sequence<unsigned long, parlay::allocator<unsigned long>, false> *>, false>::storage_impl::initialize_capacity(size_t) [T = parlay::sequence<unsigned long, parlay::allocator<unsigned long>, false> *, Allocator = parlay::allocator<parlay::sequence<unsigned long, parlay::allocator<unsigned long>, false> *>, EnableSSO = false]\00", align 1
@__PRETTY_FUNCTION__._ZN6parlay17sequence_internal13sequence_baseIPmNS_9allocatorIS2_EELb0EE12storage_impl19initialize_capacityEm = private unnamed_addr constant [238 x i8] c"void parlay::sequence_internal::sequence_base<unsigned long *, parlay::allocator<unsigned long *>, false>::storage_impl::initialize_capacity(size_t) [T = unsigned long *, Allocator = parlay::allocator<unsigned long *>, EnableSSO = false]\00", align 1
@"__PRETTY_FUNCTION__._ZNK6parlay16delayed_sequenceISt4pairIllES2_ZNS_10map_tokensIRNS_8file_mapERZNS_6tokensIS5_RN7benchIO3$_0EEENS_8sequenceINSA_IcNS_9allocatorIcEELb1EEENSB_ISD_EELb0EEEOT_OT0_EUlSH_E_S9_EEDaSH_SJ_OT1_EUlmE1_E4sizeEv" = private unnamed_addr constant [271 x i8] c"size_t parlay::delayed_sequence<std::pair<long, long>, std::pair<long, long>, (lambda at ../bench/common/../parlay/primitives.h:1093:47)>::size() const [T = std::pair<long, long>, V = std::pair<long, long>, F = (lambda at ../bench/common/../parlay/primitives.h:1093:47)]\00", align 1
@"__PRETTY_FUNCTION__._ZNK6parlay16delayed_sequenceISt4pairIllES2_ZNS_10map_tokensIRNS_8file_mapERZNS_6tokensIS5_RN7benchIO3$_0EEENS_8sequenceINSA_IcNS_9allocatorIcEELb1EEENSB_ISD_EELb0EEEOT_OT0_EUlSH_E_S9_EEDaSH_SJ_OT1_EUlmE1_E8iteratorplEm" = private unnamed_addr constant [320 x i8] c"parlay::delayed_sequence::iterator parlay::delayed_sequence<std::pair<long, long>, std::pair<long, long>, (lambda at ../bench/common/../parlay/primitives.h:1093:47)>::iterator::operator+(size_t) const [T = std::pair<long, long>, V = std::pair<long, long>, F = (lambda at ../bench/common/../parlay/primitives.h:1093:47)]\00", align 1
@"__PRETTY_FUNCTION__._ZN6parlay16delayed_sequenceISt4pairIllES2_ZNS_10map_tokensIRNS_8file_mapERZNS_6tokensIS5_RN7benchIO3$_0EEENS_8sequenceINSA_IcNS_9allocatorIcEELb1EEENSB_ISD_EELb0EEEOT_OT0_EUlSH_E_S9_EEDaSH_SJ_OT1_EUlmE1_E8iteratorppEv" = private unnamed_addr constant [310 x i8] c"parlay::delayed_sequence::iterator &parlay::delayed_sequence<std::pair<long, long>, std::pair<long, long>, (lambda at ../bench/common/../parlay/primitives.h:1093:47)>::iterator::operator++() [T = std::pair<long, long>, V = std::pair<long, long>, F = (lambda at ../bench/common/../parlay/primitives.h:1093:47)]\00", align 1
@.str.53 = private unnamed_addr constant [12 x i8] c"Parlay time\00", align 1
@__PRETTY_FUNCTION__._ZN6parlay17sequence_internal13sequence_baseISt4pairINS_8sequenceIcNS_9allocatorIcEELb1EEEmENS4_IS7_EELb0EE12storage_impl19initialize_capacityEm = private unnamed_addr constant [494 x i8] c"void parlay::sequence_internal::sequence_base<std::pair<parlay::sequence<char, parlay::allocator<char>, true>, unsigned long>, parlay::allocator<std::pair<parlay::sequence<char, parlay::allocator<char>, true>, unsigned long>>, false>::storage_impl::initialize_capacity(size_t) [T = std::pair<parlay::sequence<char, parlay::allocator<char>, true>, unsigned long>, Allocator = parlay::allocator<std::pair<parlay::sequence<char, parlay::allocator<char>, true>, unsigned long>>, EnableSSO = false]\00", align 1
@__PRETTY_FUNCTION__._ZN6parlay17sequence_internal13sequence_baseISt4pairINS_8sequenceIcNS_9allocatorIcEELb1EEEmENS4_IS7_EELb0EE12storage_impl8set_sizeEm = private unnamed_addr constant [483 x i8] c"void parlay::sequence_internal::sequence_base<std::pair<parlay::sequence<char, parlay::allocator<char>, true>, unsigned long>, parlay::allocator<std::pair<parlay::sequence<char, parlay::allocator<char>, true>, unsigned long>>, false>::storage_impl::set_size(size_t) [T = std::pair<parlay::sequence<char, parlay::allocator<char>, true>, unsigned long>, Allocator = parlay::allocator<std::pair<parlay::sequence<char, parlay::allocator<char>, true>, unsigned long>>, EnableSSO = false]\00", align 1

; Function Attrs: nounwind uwtable
define internal void @__cxx_global_var_init.1() #0 section ".text.startup" comdat($_ZN6parlay8internal31default_allocator_max_pool_sizeE) personality i8* bitcast (i32 (...)* @__gxx_personality_v0 to i8*) {
entry:
  %0 = load atomic i8, i8* bitcast (i64* @_ZGVN6parlay8internal31default_allocator_max_pool_sizeE to i8*) acquire, align 8
  %guard.uninitialized = icmp eq i8 %0, 0
  br i1 %guard.uninitialized, label %init.check, label %init.end

init.check:                                       ; preds = %entry
  %1 = tail call i32 @__cxa_guard_acquire(i64* nonnull @_ZGVN6parlay8internal31default_allocator_max_pool_sizeE) #37
  %tobool.not = icmp eq i32 %1, 0
  br i1 %tobool.not, label %init.end, label %init

init:                                             ; preds = %init.check
  %call.i = tail call i64 @sysconf(i32 noundef 85) #37
  %call1.i = tail call i64 @sysconf(i32 noundef 30) #37
  %mul.i = mul i64 %call1.i, %call.i
  %div = lshr i64 %mul.i, 6
  store i64 %div, i64* @_ZN6parlay8internal31default_allocator_max_pool_sizeE, align 8, !tbaa !3
  %2 = tail call {}* @llvm.invariant.start.p0i8(i64 8, i8* bitcast (i64* @_ZN6parlay8internal31default_allocator_max_pool_sizeE to i8*))
  tail call void @__cxa_guard_release(i64* nonnull @_ZGVN6parlay8internal31default_allocator_max_pool_sizeE) #37
  br label %init.end

init.end:                                         ; preds = %init, %init.check, %entry
  ret void
}

; Function Attrs: uwtable
define internal void @_GLOBAL__sub_I_wc.C() #1 section ".text.startup" personality i32 (...)* @__gxx_personality_v0 {
entry:
  %now.i.i.i.i = alloca %struct.timeval, align 8
  %agg.tmp.i = alloca %"class.std::__cxx11::basic_string", align 8
  tail call void @_ZNSt8ios_base4InitC1Ev(%"class.std::ios_base::Init"* noundef nonnull align 1 dereferenceable(1) @_ZStL8__ioinit)
  %0 = tail call i32 @__cxa_atexit(void (i8*)* bitcast (void (%"class.std::ios_base::Init"*)* @_ZNSt8ios_base4InitD1Ev to void (i8*)*), i8* getelementptr inbounds (%"class.std::ios_base::Init", %"class.std::ios_base::Init"* @_ZStL8__ioinit, i64 0, i32 0), i8* nonnull @__dso_handle) #37
  %1 = bitcast %"class.std::__cxx11::basic_string"* %agg.tmp.i to i8*
  call void @llvm.lifetime.start.p0i8(i64 32, i8* nonnull %1)
  %2 = getelementptr inbounds %"class.std::__cxx11::basic_string", %"class.std::__cxx11::basic_string"* %agg.tmp.i, i64 0, i32 2
  %3 = bitcast %"class.std::__cxx11::basic_string"* %agg.tmp.i to %union.anon**
  store %union.anon* %2, %union.anon** %3, align 8, !tbaa !7
  %4 = bitcast %union.anon* %2 to i8*
  call void @llvm.memcpy.p0i8.p0i8.i64(i8* noundef nonnull align 8 dereferenceable(9) %4, i8* noundef nonnull align 1 dereferenceable(9) getelementptr inbounds ([10 x i8], [10 x i8]* @.str, i64 0, i64 0), i64 9, i1 false) #37
  %_M_p.i8.i.i.i = getelementptr inbounds %"class.std::__cxx11::basic_string", %"class.std::__cxx11::basic_string"* %agg.tmp.i, i64 0, i32 0, i32 0
  %_M_string_length.i.i.i.i.i = getelementptr inbounds %"class.std::__cxx11::basic_string", %"class.std::__cxx11::basic_string"* %agg.tmp.i, i64 0, i32 1
  store i64 9, i64* %_M_string_length.i.i.i.i.i, align 8, !tbaa !10
  %5 = getelementptr inbounds %"class.std::__cxx11::basic_string", %"class.std::__cxx11::basic_string"* %agg.tmp.i, i64 0, i32 2, i32 1, i64 1
  store i8 0, i8* %5, align 1, !tbaa !12
  store double 0.000000e+00, double* getelementptr inbounds (%struct.timer, %struct.timer* @_ZL3_tm, i64 0, i32 0), align 8, !tbaa !13
  store %union.anon* getelementptr inbounds (%struct.timer, %struct.timer* @_ZL3_tm, i64 0, i32 3, i32 2), %union.anon** bitcast (%"class.std::__cxx11::basic_string"* getelementptr inbounds (%struct.timer, %struct.timer* @_ZL3_tm, i64 0, i32 3) to %union.anon**), align 8, !tbaa !7
  call void @llvm.memcpy.p0i8.p0i8.i64(i8* noundef nonnull align 8 dereferenceable(9) bitcast (%union.anon* getelementptr inbounds (%struct.timer, %struct.timer* @_ZL3_tm, i64 0, i32 3, i32 2) to i8*), i8* noundef nonnull align 1 dereferenceable(9) getelementptr inbounds ([10 x i8], [10 x i8]* @.str, i64 0, i64 0), i64 9, i1 false)
  store i64 9, i64* getelementptr inbounds (%struct.timer, %struct.timer* @_ZL3_tm, i64 0, i32 3, i32 1), align 8, !tbaa !10
  store i8 0, i8* getelementptr inbounds (%struct.timer, %struct.timer* @_ZL3_tm, i64 0, i32 3, i32 2, i32 1, i64 1), align 1, !tbaa !12
  store i32 0, i32* getelementptr inbounds (%struct.timer, %struct.timer* @_ZL3_tm, i64 0, i32 4, i32 0), align 8, !tbaa !19
  store i32 0, i32* getelementptr inbounds (%struct.timer, %struct.timer* @_ZL3_tm, i64 0, i32 4, i32 1), align 4, !tbaa !20
  store i8 1, i8* getelementptr inbounds (%struct.timer, %struct.timer* @_ZL3_tm, i64 0, i32 2), align 8, !tbaa !21
  %6 = bitcast %struct.timeval* %now.i.i.i.i to i8*
  call void @llvm.lifetime.start.p0i8(i64 16, i8* nonnull %6) #37
  %call.i.i.i.i = call i32 @gettimeofday(%struct.timeval* noundef nonnull %now.i.i.i.i, %struct.timezone* noundef nonnull getelementptr inbounds (%struct.timer, %struct.timer* @_ZL3_tm, i64 0, i32 4)) #37
  %tv_sec.i.i.i.i = getelementptr inbounds %struct.timeval, %struct.timeval* %now.i.i.i.i, i64 0, i32 0
  %7 = load i64, i64* %tv_sec.i.i.i.i, align 8, !tbaa !22
  %conv.i.i.i.i = sitofp i64 %7 to double
  %tv_usec.i.i.i.i = getelementptr inbounds %struct.timeval, %struct.timeval* %now.i.i.i.i, i64 0, i32 1
  %8 = load i64, i64* %tv_usec.i.i.i.i, align 8, !tbaa !24
  %conv2.i.i.i.i = sitofp i64 %8 to double
  %div.i.i.i.i = fdiv double %conv2.i.i.i.i, 1.000000e+06
  %add.i.i.i.i = fadd double %div.i.i.i.i, %conv.i.i.i.i
  call void @llvm.lifetime.end.p0i8(i64 16, i8* nonnull %6) #37
  store double %add.i.i.i.i, double* getelementptr inbounds (%struct.timer, %struct.timer* @_ZL3_tm, i64 0, i32 1), align 8, !tbaa !25
  %9 = load i8*, i8** %_M_p.i8.i.i.i, align 8, !tbaa !26
  %cmp.i.i.i8.i = icmp eq i8* %9, %4
  br i1 %cmp.i.i.i8.i, label %__cxx_global_var_init.2.exit, label %if.then.i.i9.i

if.then.i.i9.i:                                   ; preds = %entry
  call void @_ZdlPv(i8* noundef %9) #38
  br label %__cxx_global_var_init.2.exit

__cxx_global_var_init.2.exit:                     ; preds = %if.then.i.i9.i, %entry
  %10 = call i32 @__cxa_atexit(void (i8*)* bitcast (void (%struct.timer*)* @_ZN5timerD2Ev to void (i8*)*), i8* bitcast (%struct.timer* @_ZL3_tm to i8*), i8* nonnull @__dso_handle) #37
  call void @llvm.lifetime.end.p0i8(i64 32, i8* nonnull %1)
  ret void
}

declare dso_local i32 @__gxx_personality_v0(...)

declare dso_local void @_ZNSt8ios_base4InitC1Ev(%"class.std::ios_base::Init"* noundef nonnull align 1 dereferenceable(1)) unnamed_addr #2

; Function Attrs: nounwind
declare dso_local void @_ZNSt8ios_base4InitD1Ev(%"class.std::ios_base::Init"* noundef nonnull align 1 dereferenceable(1)) unnamed_addr #3

; Function Attrs: nofree nounwind
declare dso_local i32 @__cxa_atexit(void (i8*)*, i8*, i8*) local_unnamed_addr #4

; Function Attrs: argmemonly nofree nosync nounwind willreturn
declare void @llvm.lifetime.start.p0i8(i64 immarg, i8* nocapture) #5

; Function Attrs: argmemonly nofree nounwind willreturn
declare void @llvm.memcpy.p0i8.p0i8.i64(i8* noalias nocapture writeonly, i8* noalias nocapture readonly, i64, i1 immarg) #6

; Function Attrs: nofree nounwind
declare dso_local noundef i32 @gettimeofday(%struct.timeval* nocapture noundef, %struct.timezone* nocapture noundef) local_unnamed_addr #7

; Function Attrs: argmemonly nofree nosync nounwind willreturn
declare void @llvm.lifetime.end.p0i8(i64 immarg, i8* nocapture) #5

; Function Attrs: nobuiltin nounwind
declare dso_local void @_ZdlPv(i8* noundef) local_unnamed_addr #8

; Function Attrs: inlinehint nounwind uwtable
define linkonce_odr dso_local void @_ZN5timerD2Ev(%struct.timer* noundef nonnull align 8 dereferenceable(64) %this) unnamed_addr #9 comdat align 2 personality i32 (...)* @__gxx_personality_v0 {
entry:
  %_M_p.i.i.i.i = getelementptr inbounds %struct.timer, %struct.timer* %this, i64 0, i32 3, i32 0, i32 0
  %0 = load i8*, i8** %_M_p.i.i.i.i, align 8, !tbaa !26
  %1 = getelementptr inbounds %struct.timer, %struct.timer* %this, i64 0, i32 3, i32 2
  %arraydecay.i.i.i.i = bitcast %union.anon* %1 to i8*
  %cmp.i.i.i = icmp eq i8* %0, %arraydecay.i.i.i.i
  br i1 %cmp.i.i.i, label %_ZNSt7__cxx1112basic_stringIcSt11char_traitsIcESaIcEED2Ev.exit, label %if.then.i.i

if.then.i.i:                                      ; preds = %entry
  tail call void @_ZdlPv(i8* noundef %0) #38
  br label %_ZNSt7__cxx1112basic_stringIcSt11char_traitsIcESaIcEED2Ev.exit

_ZNSt7__cxx1112basic_stringIcSt11char_traitsIcESaIcEED2Ev.exit: ; preds = %if.then.i.i, %entry
  ret void
}

; Function Attrs: nofree nounwind
declare dso_local i32 @__cxa_guard_acquire(i64*) local_unnamed_addr #4

; Function Attrs: nounwind
declare dso_local i64 @sysconf(i32 noundef) local_unnamed_addr #3

; Function Attrs: argmemonly nofree nosync nounwind willreturn
declare {}* @llvm.invariant.start.p0i8(i64 immarg, i8* nocapture) #5

; Function Attrs: nofree nounwind
declare dso_local void @__cxa_guard_release(i64*) local_unnamed_addr #4

; Function Attrs: uwtable
define dso_local void @_Z10wordCountsRKN6parlay8sequenceIcNS_9allocatorIcEELb1EEEb(%"class.parlay::sequence.1"* noalias sret(%"class.parlay::sequence.1") align 8 %agg.result, %"class.parlay::sequence"* noundef nonnull align 8 dereferenceable(16) %s, i1 noundef zeroext %verbose) local_unnamed_addr #1 personality i8* bitcast (i32 (...)* @__gxx_personality_v0 to i8*) {
_ZNSt7__cxx1112basic_stringIcSt11char_traitsIcESaIcEEC2ERKS4_.exit.i:
  %alloc.i.i.i339 = alloca %"class.std::ios_base::Init", align 1
  %syncreg.i.i.i.i.i.i.i = tail call token @llvm.syncregion.start(), !noalias !27
  %alloc.i.i.i = alloca %"class.std::ios_base::Init", align 1
  %current_buffer.i.i.i.i.i.i296 = alloca %"struct.std::pair.485"*, align 8
  %alloc.i.i.i.i.i297 = alloca %"class.std::ios_base::Init", align 1
  %buffer.i.i.i = alloca %"struct.std::pair.485"*, align 8
  %alloc.i.i.i42.i.i = alloca %"class.std::ios_base::Init", align 1
  %alloc.i.i.i39.i.i = alloca %"class.std::ios_base::Init", align 1
  %alloc.i.i.i35.i.i = alloca %"class.std::ios_base::Init", align 1
  %alloc.i.i.i31.i.i = alloca %"class.std::ios_base::Init", align 1
  %alloc.i.i.i28.i.i = alloca %"class.std::ios_base::Init", align 1
  %alloc.i.i.i25.i.i = alloca %"class.std::ios_base::Init", align 1
  %alloc.i.i.i21.i.i = alloca %"class.std::ios_base::Init", align 1
  %alloc.i.i.i17.i.i = alloca %"class.std::ios_base::Init", align 1
  %current_buffer.i.i.i.i.i.i = alloca %"class.parlay::sequence.1"*, align 8
  %alloc.i.i.i10.i.i = alloca %"class.std::ios_base::Init", align 1
  %alloc.i.i.i.i.i190 = alloca %"class.std::ios_base::Init", align 1
  %alloc.i.i.i.i5.i.i = alloca %"class.std::ios_base::Init", align 1
  %alloc.i.i.i.i253.i.i.i = alloca %"class.std::ios_base::Init", align 1
  %alloc.i.i.i247.i.i.i = alloca %"class.std::ios_base::Init", align 1
  %current_buffer.i.i.i.i.i.i.i = alloca %"class.parlay::sequence.1"*, align 8
  %alloc.i.i.i.i.i.i191 = alloca %"class.std::ios_base::Init", align 1
  %current_buffer.i.i.i.i.i.i.i.i.i = alloca %"class.parlay::sequence.1"*, align 8
  %alloc.i.i.i.i.i213.i.i.i = alloca %"class.std::ios_base::Init", align 1
  %buffer.i.i.i.i.i.i192 = alloca %"class.parlay::sequence.1"*, align 8
  %alloc.i.i.i.i188.i.i.i = alloca %"class.std::ios_base::Init", align 1
  %alloc.i.i.i28.i9.i.i.i.i = alloca %"class.std::ios_base::Init", align 1
  %alloc.i.i.i24.i10.i.i.i.i = alloca %"class.std::ios_base::Init", align 1
  %alloc.i.i.i21.i11.i.i.i.i = alloca %"class.std::ios_base::Init", align 1
  %In.i.i12.i.i.i.i = alloca %"struct.parlay::slice.453", align 8
  %alloc.i.i.i.i13.i.i.i.i = alloca %"class.std::ios_base::Init", align 1
  %In.i14.i.i.i.i = alloca %"struct.parlay::slice.391", align 8
  %Out.i15.i.i.i.i = alloca %"struct.parlay::slice.391", align 8
  %num_buckets.addr.i16.i.i.i.i = alloca i64, align 8
  %n.i17.i.i.i.i = alloca i64, align 8
  %num_blocks.i18.i.i.i.i = alloca i64, align 8
  %ref.tmp10.i19.i.i.i.i = alloca %"class.parlay::sequence.1", align 8
  %block_size.i20.i.i.i.i = alloca i64, align 8
  %counts.i21.i.i.i.i = alloca %"class.parlay::sequence.1", align 8
  %agg.tmp17.i22.i.i.i.i = alloca %class.anon.470, align 8
  %bucket_offsets.i23.i.i.i.i = alloca %"class.parlay::sequence.1", align 8
  %agg.tmp23.i24.i.i.i.i = alloca %class.anon.471, align 8
  %ref.tmp41.i25.i.i.i.i = alloca %"struct.parlay::plus", align 8
  %dest_offsets.i26.i.i.i.i = alloca %"class.parlay::sequence.1", align 8
  %agg.tmp58.i27.i.i.i.i = alloca %class.anon.472, align 8
  %agg.tmp63.i28.i.i.i.i = alloca %class.anon.470, align 8
  %agg.tmp148.i.i.i.i = alloca %"struct.parlay::slice.415", align 8
  %alloc.i.i.i28.i.i.i.i.i = alloca %"class.std::ios_base::Init", align 1
  %alloc.i.i.i24.i.i.i.i.i = alloca %"class.std::ios_base::Init", align 1
  %alloc.i.i.i21.i.i.i.i.i = alloca %"class.std::ios_base::Init", align 1
  %In.i.i.i.i.i.i = alloca %"struct.parlay::slice.453", align 8
  %alloc.i.i.i.i.i.i.i.i193 = alloca %"class.std::ios_base::Init", align 1
  %In.i.i.i.i.i = alloca %"struct.parlay::slice.391", align 8
  %Out.i.i.i.i.i194 = alloca %"struct.parlay::slice.391", align 8
  %num_buckets.addr.i.i.i.i.i = alloca i64, align 8
  %n.i.i166.i.i.i = alloca i64, align 8
  %num_blocks.i.i.i.i.i = alloca i64, align 8
  %ref.tmp10.i.i.i.i.i = alloca %"class.parlay::sequence.1", align 8
  %block_size.i.i.i.i.i = alloca i64, align 8
  %counts.i.i.i.i.i = alloca %"class.parlay::sequence.1", align 8
  %agg.tmp17.i.i.i.i.i = alloca %class.anon.470, align 8
  %bucket_offsets.i.i.i.i.i = alloca %"class.parlay::sequence.1", align 8
  %agg.tmp23.i.i.i.i.i = alloca %class.anon.471, align 8
  %ref.tmp41.i.i.i.i.i = alloca %"struct.parlay::plus", align 8
  %dest_offsets.i.i.i.i.i = alloca %"class.parlay::sequence.1", align 8
  %agg.tmp58.i.i.i.i.i = alloca %class.anon.472, align 8
  %agg.tmp63.i.i.i.i.i = alloca %class.anon.470, align 8
  %agg.tmp117.i.i.i.i = alloca %"struct.parlay::slice.415", align 8
  %agg.tmp31165.i.i.i = alloca %"struct.parlay::slice.415", align 8
  %alloc.i.i.i193.i.i.i.i = alloca %"class.std::ios_base::Init", align 1
  %alloc.i.i.i.i126.i.i.i = alloca %"class.std::ios_base::Init", align 1
  %tmp.i.i.i.i.i.i.i = alloca [15 x i8], align 1
  %hash_table_count.i.i.i.i = alloca %"class.parlay::sequence.1", align 8
  %ref.tmp.i.i.i.i = alloca { i8*, i32 }, align 8
  %agg.tmp.i.i.i.i = alloca %"class.parlay::sequence.1", align 8
  %ref.tmp42.i.i.i.i = alloca { i8*, i32 }, align 8
  %alloc.i.i.i.i.i.i.i = alloca %"class.std::ios_base::Init", align 1
  %table_s.i.i.i.i = alloca %"class.parlay::internal::uninitialized_sequence.425", align 8
  %flags_s.i.i.i.i = alloca %"class.parlay::sequence.1", align 8
  %ref.tmp1.i.i.i.i = alloca i8, align 1
  %r_s.i.i.i.i = alloca %"class.parlay::sequence.1", align 8
  %__dnew.i.i.i.i.i.i = alloca i64, align 8
  %__dnew.i.i.i.i.i = alloca i64, align 8
  %A.i.i.i = alloca %"struct.parlay::slice.391", align 8
  %t.i.i.i = alloca %"struct.parlay::internal::timer", align 8
  %agg.tmp.i.i.i = alloca %"class.std::__cxx11::basic_string", align 8
  %gb.i.i.i = alloca %"struct.parlay::internal::get_bucket", align 8
  %B.i.i.i = alloca %"class.parlay::internal::uninitialized_sequence", align 8
  %keys.i.i.i = alloca %"class.parlay::delayed_sequence.400", align 8
  %bucket_offsets.i.i.i = alloca %"class.parlay::sequence.1", align 8
  %ref.tmp23.i.i.i = alloca %"struct.std::pair.411", align 8
  %agg.tmp35.i.i.i = alloca %"class.std::__cxx11::basic_string", align 8
  %heavy_cutoff.i.i.i = alloca i64, align 8
  %tables.i.i.i = alloca %"class.parlay::sequence.1", align 8
  %ref.tmp44.i.i.i = alloca %class.anon.424, align 8
  %agg.tmp48.i.i.i = alloca %"class.std::__cxx11::basic_string", align 8
  %helper.i = alloca %"struct.parlay::count_by_key_helper", align 8
  %alloc.i.i.i.i.i53.i = alloca %"class.std::ios_base::Init", align 1
  %alloc.i.i.i.i = alloca %"class.std::ios_base::Init", align 1
  %alloc.i.i.i.i12.i.i = alloca %"class.std::ios_base::Init", align 1
  %alloc.i.i.i.i.i54.i.i.i = alloca %"class.std::ios_base::Init", align 1
  %n.addr.i10.i.i.i.i.i = alloca i64, align 8
  %block_size.addr.i11.i.i.i.i.i = alloca i64, align 8
  %n.addr.i.i.i.i.i.i = alloca i64, align 8
  %block_size.addr.i.i.i.i.i.i = alloca i64, align 8
  %Out.i.i.i.i.i = alloca %"struct.parlay::slice.368", align 8
  %fl.addr.i.i.i.i.i = alloca i32, align 4
  %out_uninitialized.addr.i.i.i.i.i = alloca i8, align 1
  %sums.i.i.i.i.i = alloca %"class.parlay::sequence.1", align 8
  %ref.tmp.i.i.i.i.i = alloca %class.anon.370, align 8
  %ref.tmp13.i.i.i.i.i = alloca %class.anon.371, align 8
  %In.i.i.i.i = alloca %"struct.parlay::slice.368", align 8
  %alloc.i.i.i.i.i.i = alloca %"class.std::ios_base::Init", align 1
  %tmp.i.i.i.i.i.i = alloca [15 x i8], align 1
  %alloc.i.i.i.i.i.i.i.i = alloca %"class.std::ios_base::Init", align 1
  %agg.tmp8.i.i.i = alloca %"class.parlay::sequence.1", align 8
  %ref.tmp21.i.i.i = alloca %"struct.parlay::monoid", align 8
  %s.i41.i = alloca %"struct.parlay::internal::delayed::block_delayed_scan_t", align 8
  %A.i = alloca %"struct.parlay::slice", align 8
  %n.i = alloca i64, align 8
  %is_start.i = alloca %class.anon.326, align 8
  %is_end.i = alloca %class.anon.327, align 8
  %in.i = alloca %"class.parlay::delayed_sequence", align 8
  %0 = alloca %"struct.std::pair.331", align 8
  %z.i = alloca %"struct.parlay::internal::delayed::block_delayed_zip_t", align 8
  %start.i = alloca i8*, align 8
  %result.i = alloca %"class.parlay::sequence.1", align 8
  %ref.tmp15.i = alloca %class.anon.366, align 8
  %alloc.i.i.i.i.i = alloca %"class.std::ios_base::Init", align 1
  %now.i.i.i = alloca %struct.timeval, align 8
  %t = alloca %struct.timer, align 8
  %agg.tmp = alloca %"class.std::__cxx11::basic_string", align 8
  %str = alloca %"class.parlay::sequence", align 8
  %agg.tmp16 = alloca %"class.std::__cxx11::basic_string", align 8
  %get_word = alloca %"class.std::ios_base::Init", align 1
  %words = alloca %"class.parlay::sequence.1", align 8
  %ref.tmp25 = alloca %"class.std::ios_base::Init", align 1
  %agg.tmp29 = alloca %"class.std::__cxx11::basic_string", align 8
  %strhash = alloca %"class.std::ios_base::Init", align 1
  %eql = alloca %"class.std::ios_base::Init", align 1
  %hist = alloca %"class.parlay::sequence.1", align 8
  %agg.tmp49 = alloca %"class.std::__cxx11::basic_string", align 8
  %ref.tmp69 = alloca %class.anon.27, align 8
  %agg.tmp73 = alloca %"class.std::__cxx11::basic_string", align 8
  %1 = bitcast %struct.timer* %t to i8*
  call void @llvm.lifetime.start.p0i8(i64 64, i8* nonnull %1) #37
  %2 = getelementptr inbounds %"class.std::__cxx11::basic_string", %"class.std::__cxx11::basic_string"* %agg.tmp, i64 0, i32 2
  %3 = bitcast %"class.std::__cxx11::basic_string"* %agg.tmp to %union.anon**
  store %union.anon* %2, %union.anon** %3, align 8, !tbaa !7
  %4 = bitcast %union.anon* %2 to i8*
  call void @llvm.memcpy.p0i8.p0i8.i64(i8* noundef nonnull align 8 dereferenceable(11) %4, i8* noundef nonnull align 1 dereferenceable(11) getelementptr inbounds ([12 x i8], [12 x i8]* @.str.3, i64 0, i64 0), i64 11, i1 false) #37
  %_M_string_length.i.i.i.i = getelementptr inbounds %"class.std::__cxx11::basic_string", %"class.std::__cxx11::basic_string"* %agg.tmp, i64 0, i32 1
  store i64 11, i64* %_M_string_length.i.i.i.i, align 8, !tbaa !10
  %5 = getelementptr inbounds %"class.std::__cxx11::basic_string", %"class.std::__cxx11::basic_string"* %agg.tmp, i64 0, i32 2, i32 1, i64 3
  store i8 0, i8* %5, align 1, !tbaa !12
  %total_time.i = getelementptr inbounds %struct.timer, %struct.timer* %t, i64 0, i32 0
  store double 0.000000e+00, double* %total_time.i, align 8, !tbaa !13
  %on.i = getelementptr inbounds %struct.timer, %struct.timer* %t, i64 0, i32 2
  store i8 0, i8* %on.i, align 8, !tbaa !21
  %name2.i = getelementptr inbounds %struct.timer, %struct.timer* %t, i64 0, i32 3
  %6 = getelementptr inbounds %struct.timer, %struct.timer* %t, i64 0, i32 3, i32 2
  %7 = bitcast %"class.std::__cxx11::basic_string"* %name2.i to %union.anon**
  store %union.anon* %6, %union.anon** %7, align 8, !tbaa !7
  %8 = bitcast %union.anon* %6 to i8*
  call void @llvm.memcpy.p0i8.p0i8.i64(i8* noundef nonnull align 8 dereferenceable(11) %8, i8* noundef nonnull align 1 dereferenceable(11) getelementptr inbounds ([12 x i8], [12 x i8]* @.str.3, i64 0, i64 0), i64 11, i1 false)
  %_M_string_length.i.i.i.i.i = getelementptr inbounds %struct.timer, %struct.timer* %t, i64 0, i32 3, i32 1
  store i64 11, i64* %_M_string_length.i.i.i.i.i, align 8, !tbaa !10
  %9 = getelementptr inbounds %struct.timer, %struct.timer* %t, i64 0, i32 3, i32 2, i32 1, i64 3
  store i8 0, i8* %9, align 1, !tbaa !12
  %tz_minuteswest.i = getelementptr inbounds %struct.timer, %struct.timer* %t, i64 0, i32 4, i32 0
  store i32 0, i32* %tz_minuteswest.i, align 8, !tbaa !19
  %tz_dsttime.i = getelementptr inbounds %struct.timer, %struct.timer* %t, i64 0, i32 4, i32 1
  store i32 0, i32* %tz_dsttime.i, align 4, !tbaa !20
  br i1 %verbose, label %invoke.cont2, label %invoke.cont5

invoke.cont2:                                     ; preds = %_ZNSt7__cxx1112basic_stringIcSt11char_traitsIcESaIcEEC2ERKS4_.exit.i
  %_M_p.i8.i.i = getelementptr inbounds %"class.std::__cxx11::basic_string", %"class.std::__cxx11::basic_string"* %agg.tmp, i64 0, i32 0, i32 0
  store i8 1, i8* %on.i, align 8, !tbaa !21
  %10 = bitcast %struct.timeval* %now.i.i.i to i8*
  call void @llvm.lifetime.start.p0i8(i64 16, i8* nonnull %10) #37
  %tzp.i.i.i = getelementptr inbounds %struct.timer, %struct.timer* %t, i64 0, i32 4
  %call.i.i.i = call i32 @gettimeofday(%struct.timeval* noundef nonnull %now.i.i.i, %struct.timezone* noundef nonnull %tzp.i.i.i) #37
  %tv_sec.i.i.i = getelementptr inbounds %struct.timeval, %struct.timeval* %now.i.i.i, i64 0, i32 0
  %11 = load i64, i64* %tv_sec.i.i.i, align 8, !tbaa !22
  %conv.i.i.i = sitofp i64 %11 to double
  %tv_usec.i.i.i = getelementptr inbounds %struct.timeval, %struct.timeval* %now.i.i.i, i64 0, i32 1
  %12 = load i64, i64* %tv_usec.i.i.i, align 8, !tbaa !24
  %conv2.i.i.i = sitofp i64 %12 to double
  %div.i.i.i = fdiv double %conv2.i.i.i, 1.000000e+06
  %add.i.i.i = fadd double %div.i.i.i, %conv.i.i.i
  call void @llvm.lifetime.end.p0i8(i64 16, i8* nonnull %10) #37
  %last_time.i.i = getelementptr inbounds %struct.timer, %struct.timer* %t, i64 0, i32 1
  store double %add.i.i.i, double* %last_time.i.i, align 8, !tbaa !25
  %.pre = load i8*, i8** %_M_p.i8.i.i, align 8, !tbaa !26
  %cmp.i.i.i117 = icmp eq i8* %.pre, %4
  br i1 %cmp.i.i.i117, label %invoke.cont5, label %if.then.i.i118

if.then.i.i118:                                   ; preds = %invoke.cont2
  call void @_ZdlPv(i8* noundef %.pre) #38
  br label %invoke.cont5

invoke.cont5:                                     ; preds = %if.then.i.i118, %invoke.cont2, %_ZNSt7__cxx1112basic_stringIcSt11char_traitsIcESaIcEEC2ERKS4_.exit.i
  %flag.i.i.i = getelementptr inbounds %"class.parlay::sequence", %"class.parlay::sequence"* %s, i64 0, i32 0, i32 0, i32 0, i32 1
  %bf.load.i.i.i = load i8, i8* %flag.i.i.i, align 1
  %conv.i.i = zext i8 %bf.load.i.i.i to i64
  %n.i.i.i = getelementptr inbounds %"class.parlay::sequence", %"class.parlay::sequence"* %s, i64 0, i32 0, i32 0, i32 0, i32 0, i32 0, i32 0, i32 0, i64 8
  %13 = bitcast i8* %n.i.i.i to i48*
  %bf.load.i4.i.i = load i48, i48* %13, align 8
  %bf.cast.i.i.i = zext i48 %bf.load.i4.i.i to i64
  %cmp.i5.i.i = icmp slt i8 %bf.load.i.i.i, 0
  %retval.0.i.i = select i1 %cmp.i5.i.i, i64 %bf.cast.i.i.i, i64 %conv.i.i
  %call1.i120 = invoke noundef nonnull align 8 dereferenceable(8) %"class.std::basic_ostream"* @_ZSt16__ostream_insertIcSt11char_traitsIcEERSt13basic_ostreamIT_T0_ES6_PKS3_l(%"class.std::basic_ostream"* noundef nonnull align 8 dereferenceable(8) @_ZSt4cout, i8* noundef nonnull getelementptr inbounds ([24 x i8], [24 x i8]* @.str.4, i64 0, i64 0), i64 noundef 23)
          to label %invoke.cont6 unwind label %lpad4

invoke.cont6:                                     ; preds = %invoke.cont5
  %call.i121 = invoke noundef nonnull align 8 dereferenceable(8) %"class.std::basic_ostream"* @_ZNSo9_M_insertImEERSoT_(%"class.std::basic_ostream"* noundef nonnull align 8 dereferenceable(8) @_ZSt4cout, i64 noundef %retval.0.i.i)
          to label %invoke.cont8 unwind label %lpad4

invoke.cont8:                                     ; preds = %invoke.cont6
  %14 = bitcast %"class.std::basic_ostream"* %call.i121 to i8**
  %vtable.i = load i8*, i8** %14, align 8, !tbaa !36
  %vbase.offset.ptr.i = getelementptr i8, i8* %vtable.i, i64 -24
  %15 = bitcast i8* %vbase.offset.ptr.i to i64*
  %vbase.offset.i = load i64, i64* %15, align 8
  %16 = bitcast %"class.std::basic_ostream"* %call.i121 to i8*
  %add.ptr.i = getelementptr inbounds i8, i8* %16, i64 %vbase.offset.i
  %_M_ctype.i.i = getelementptr inbounds i8, i8* %add.ptr.i, i64 240
  %17 = bitcast i8* %_M_ctype.i.i to %"class.std::ctype"**
  %18 = load %"class.std::ctype"*, %"class.std::ctype"** %17, align 8, !tbaa !38
  %tobool.not.i.i.i = icmp eq %"class.std::ctype"* %18, null
  br i1 %tobool.not.i.i.i, label %if.then.i.i.i385, label %_ZSt13__check_facetISt5ctypeIcEERKT_PS3_.exit.i.i

if.then.i.i.i385:                                 ; preds = %invoke.cont8
  invoke void @_ZSt16__throw_bad_castv() #39
          to label %.noexc unwind label %lpad4

.noexc:                                           ; preds = %if.then.i.i.i385
  unreachable

_ZSt13__check_facetISt5ctypeIcEERKT_PS3_.exit.i.i: ; preds = %invoke.cont8
  %_M_widen_ok.i.i.i = getelementptr inbounds %"class.std::ctype", %"class.std::ctype"* %18, i64 0, i32 8
  %19 = load i8, i8* %_M_widen_ok.i.i.i, align 8, !tbaa !40
  %tobool.not.i3.i.i = icmp eq i8 %19, 0
  br i1 %tobool.not.i3.i.i, label %if.end.i.i.i388, label %if.then.i4.i.i

if.then.i4.i.i:                                   ; preds = %_ZSt13__check_facetISt5ctypeIcEERKT_PS3_.exit.i.i
  %arrayidx.i.i.i386 = getelementptr inbounds %"class.std::ctype", %"class.std::ctype"* %18, i64 0, i32 9, i64 10
  %20 = load i8, i8* %arrayidx.i.i.i386, align 1, !tbaa !12
  br label %_ZNKSt9basic_iosIcSt11char_traitsIcEE5widenEc.exit.i

if.end.i.i.i388:                                  ; preds = %_ZSt13__check_facetISt5ctypeIcEERKT_PS3_.exit.i.i
  invoke void @_ZNKSt5ctypeIcE13_M_widen_initEv(%"class.std::ctype"* noundef nonnull align 8 dereferenceable(570) %18)
          to label %.noexc390 unwind label %lpad4

.noexc390:                                        ; preds = %if.end.i.i.i388
  %21 = bitcast %"class.std::ctype"* %18 to i8 (%"class.std::ctype"*, i8)***
  %vtable.i.i.i = load i8 (%"class.std::ctype"*, i8)**, i8 (%"class.std::ctype"*, i8)*** %21, align 8, !tbaa !36
  %vfn.i.i.i = getelementptr inbounds i8 (%"class.std::ctype"*, i8)*, i8 (%"class.std::ctype"*, i8)** %vtable.i.i.i, i64 6
  %22 = load i8 (%"class.std::ctype"*, i8)*, i8 (%"class.std::ctype"*, i8)** %vfn.i.i.i, align 8
  %call.i.i.i387391 = invoke noundef signext i8 %22(%"class.std::ctype"* noundef nonnull align 8 dereferenceable(570) %18, i8 noundef signext 10)
          to label %_ZNKSt9basic_iosIcSt11char_traitsIcEE5widenEc.exit.i unwind label %lpad4

_ZNKSt9basic_iosIcSt11char_traitsIcEE5widenEc.exit.i: ; preds = %.noexc390, %if.then.i4.i.i
  %retval.0.i.i.i = phi i8 [ %20, %if.then.i4.i.i ], [ %call.i.i.i387391, %.noexc390 ]
  %call1.i392 = invoke noundef nonnull align 8 dereferenceable(8) %"class.std::basic_ostream"* @_ZNSo3putEc(%"class.std::basic_ostream"* noundef nonnull align 8 dereferenceable(8) %call.i121, i8 noundef signext %retval.0.i.i.i)
          to label %call1.i.noexc unwind label %lpad4

call1.i.noexc:                                    ; preds = %_ZNKSt9basic_iosIcSt11char_traitsIcEE5widenEc.exit.i
  %call.i.i389393 = invoke noundef nonnull align 8 dereferenceable(8) %"class.std::basic_ostream"* @_ZNSo5flushEv(%"class.std::basic_ostream"* noundef nonnull align 8 dereferenceable(8) %call1.i392)
          to label %invoke.cont10 unwind label %lpad4

invoke.cont10:                                    ; preds = %call1.i.noexc
  %23 = getelementptr inbounds %"class.parlay::sequence", %"class.parlay::sequence"* %str, i64 0, i32 0, i32 0, i32 0, i32 0, i32 0, i32 0, i32 0, i64 0
  call void @llvm.lifetime.start.p0i8(i64 16, i8* nonnull %23) #37
  %add = add nuw nsw i64 %retval.0.i.i, 1
  call void @llvm.experimental.noalias.scope.decl(metadata !42)
  call void @llvm.experimental.noalias.scope.decl(metadata !45)
  %call.i.i.i.i.i.i = invoke noundef nonnull align 8 dereferenceable(80) %"struct.parlay::internal::pool_allocator"* @_ZN6parlay8internal21get_default_allocatorEv()
          to label %_ZN6parlay17sequence_internal13sequence_baseIcNS_9allocatorIcEELb1EEC2Ev.exit.i.i.i unwind label %terminate.lpad.i.i.i.i.i.i, !noalias !48

terminate.lpad.i.i.i.i.i.i:                       ; preds = %invoke.cont10
  %24 = landingpad { i8*, i32 }
          catch i8* null
  %25 = extractvalue { i8*, i32 } %24, 0
  call void @__clang_call_terminate(i8* %25) #40, !noalias !48
  unreachable

_ZN6parlay17sequence_internal13sequence_baseIcNS_9allocatorIcEELb1EEC2Ev.exit.i.i.i: ; preds = %invoke.cont10
  call void @llvm.memset.p0i8.i64(i8* noundef nonnull align 8 dereferenceable(16) %23, i8 0, i64 16, i1 false) #37, !alias.scope !48
  %cmp.i.i.i.i = icmp ugt i64 %retval.0.i.i, 14
  %flag.i.i.i.i = getelementptr inbounds %"class.parlay::sequence", %"class.parlay::sequence"* %str, i64 0, i32 0, i32 0, i32 0, i32 1
  br i1 %cmp.i.i.i.i, label %if.end.i.i.i.i, label %pfor.cond.preheader.i.i.i.i.thread

if.end.i.i.i.i:                                   ; preds = %_ZN6parlay17sequence_internal13sequence_baseIcNS_9allocatorIcEELb1EEC2Ev.exit.i.i.i
  store i8 -128, i8* %flag.i.i.i.i, align 1, !alias.scope !48
  %call.i.i.i.i.i2.i.i.i = invoke noundef nonnull align 8 dereferenceable(80) %"struct.parlay::internal::pool_allocator"* @_ZN6parlay8internal21get_default_allocatorEv()
          to label %call.i.i.i.i.i.noexc.i.i.i unwind label %if.then.i.i.i.i.i123, !noalias !48

call.i.i.i.i.i.noexc.i.i.i:                       ; preds = %if.end.i.i.i.i
  %add.i.i.i.i.i.i = add nuw nsw i64 %retval.0.i.i, 9
  %call2.i.i.i.i.i3.i.i.i = invoke noundef i8* @_ZN6parlay8internal14pool_allocator8allocateEm(%"struct.parlay::internal::pool_allocator"* noundef nonnull align 8 dereferenceable(80) %call.i.i.i.i.i2.i.i.i, i64 noundef %add.i.i.i.i.i.i)
          to label %pfor.cond.preheader.i.i.i.i unwind label %if.then.i.i.i.i.i123, !noalias !48

pfor.cond.preheader.i.i.i.i.thread:               ; preds = %_ZN6parlay17sequence_internal13sequence_baseIcNS_9allocatorIcEELb1EEC2Ev.exit.i.i.i
  %conv.i.i.i.i = trunc i64 %add to i8
  store i8 %conv.i.i.i.i, i8* %flag.i.i.i.i, align 1, !alias.scope !48
  br label %pfor.cond.i.i.i.i.epil.preheader

pfor.cond.preheader.i.i.i.i:                      ; preds = %call.i.i.i.i.i.noexc.i.i.i
  %capacity.i.i.i.i.i.i.i = bitcast i8* %call2.i.i.i.i.i3.i.i.i to i64*
  store i64 %add, i64* %capacity.i.i.i.i.i.i.i, align 8, !tbaa !49, !noalias !48
  %26 = bitcast %"class.parlay::sequence"* %str to i8**
  store i8* %call2.i.i.i.i.i3.i.i.i, i8** %26, align 8, !tbaa.struct !51, !alias.scope !48
  %ref.tmp.sroa.4.0..sroa_idx.i.i.i.i = getelementptr inbounds %"class.parlay::sequence", %"class.parlay::sequence"* %str, i64 0, i32 0, i32 0, i32 0, i32 0, i32 0, i32 0, i32 0, i64 8
  %ref.tmp.sroa.4.0..sroa_cast14.i.i.i.i = bitcast i8* %ref.tmp.sroa.4.0..sroa_idx.i.i.i.i to i48*
  %27 = trunc i64 %add to i48
  store i48 %27, i48* %ref.tmp.sroa.4.0..sroa_cast14.i.i.i.i, align 8, !alias.scope !48
  %28 = getelementptr inbounds i8, i8* %call2.i.i.i.i.i3.i.i.i, i64 8
  %arraydecay.i.i.i.i.i.i.i.i.i.i.i.i = getelementptr inbounds %"class.parlay::sequence", %"class.parlay::sequence"* %s, i64 0, i32 0, i32 0, i32 0, i32 0, i32 0, i32 0, i32 0, i64 0
  %buffer.i.i.i.i.i.i.i.i.i.i.i = bitcast %"class.parlay::sequence"* %s to %"struct.parlay::sequence_internal::sequence_base<char, parlay::allocator<char>, true>::storage_impl::capacitated_buffer::header"**
  %xtraiter = and i64 %retval.0.i.i, 2047
  %29 = icmp ult i64 %retval.0.i.i, 2048
  br i1 %29, label %pfor.cond.i.i.i.i.epil.preheader, label %pfor.cond.preheader.i.i.i.i.new

pfor.cond.preheader.i.i.i.i.new:                  ; preds = %pfor.cond.preheader.i.i.i.i
  %stripiter = lshr i64 %retval.0.i.i, 11
  br label %pfor.cond.i.i.i.i.strpm.outer

pfor.cond.i.i.i.i.strpm.outer:                    ; preds = %pfor.inc.i.i.i.i.strpm.outer, %pfor.cond.preheader.i.i.i.i.new
  %niter = phi i64 [ 0, %pfor.cond.preheader.i.i.i.i.new ], [ %niter.nadd, %pfor.inc.i.i.i.i.strpm.outer ]
  detach within %syncreg.i.i.i.i.i.i.i, label %pfor.body.entry.i.i.i.i.strpm.outer, label %pfor.inc.i.i.i.i.strpm.outer

pfor.body.entry.i.i.i.i.strpm.outer:              ; preds = %pfor.cond.i.i.i.i.strpm.outer
  %30 = shl nuw nsw i64 %niter, 11
  br label %pfor.cond.i.i.i.i

pfor.cond.i.i.i.i:                                ; preds = %"_ZZN6parlay8sequenceIcNS_9allocatorIcEELb1EEC1IZ10wordCountsRKS3_bE3$_0EEmOT_NS3_18_from_function_tagEmENKUlmE_clEm.exit.i.i.i.i", %pfor.body.entry.i.i.i.i.strpm.outer
  %__begin.0.i.i.i.i = phi i64 [ %inc.i.i.i.i, %"_ZZN6parlay8sequenceIcNS_9allocatorIcEELb1EEC1IZ10wordCountsRKS3_bE3$_0EEmOT_NS3_18_from_function_tagEmENKUlmE_clEm.exit.i.i.i.i" ], [ %30, %pfor.body.entry.i.i.i.i.strpm.outer ]
  %inneriter = phi i64 [ %inneriter.nsub, %"_ZZN6parlay8sequenceIcNS_9allocatorIcEELb1EEC1IZ10wordCountsRKS3_bE3$_0EEmOT_NS3_18_from_function_tagEmENKUlmE_clEm.exit.i.i.i.i" ], [ 2048, %pfor.body.entry.i.i.i.i.strpm.outer ]
  %cmp.i.i.i15.i.i.i = icmp eq i64 %retval.0.i.i, %__begin.0.i.i.i.i
  br i1 %cmp.i.i.i15.i.i.i, label %"_ZZN6parlay8sequenceIcNS_9allocatorIcEELb1EEC1IZ10wordCountsRKS3_bE3$_0EEmOT_NS3_18_from_function_tagEmENKUlmE_clEm.exit.i.i.i.i", label %cond.false.i.i.i.i.i.i

cond.false.i.i.i.i.i.i:                           ; preds = %pfor.cond.i.i.i.i
  %bf.load.i.i.i.i.i.i.i.i.i.i = load i8, i8* %flag.i.i.i, align 1, !noalias !48
  %31 = load %"struct.parlay::sequence_internal::sequence_base<char, parlay::allocator<char>, true>::storage_impl::capacitated_buffer::header"*, %"struct.parlay::sequence_internal::sequence_base<char, parlay::allocator<char>, true>::storage_impl::capacitated_buffer::header"** %buffer.i.i.i.i.i.i.i.i.i.i.i, align 8, !noalias !48
  %cmp.not.i.i.i.i.i.i.i.i.i.i.i = icmp eq %"struct.parlay::sequence_internal::sequence_base<char, parlay::allocator<char>, true>::storage_impl::capacitated_buffer::header"* %31, null
  %32 = getelementptr inbounds %"struct.parlay::sequence_internal::sequence_base<char, parlay::allocator<char>, true>::storage_impl::capacitated_buffer::header", %"struct.parlay::sequence_internal::sequence_base<char, parlay::allocator<char>, true>::storage_impl::capacitated_buffer::header"* %31, i64 0, i32 1, i32 0, i64 0
  %spec.select.i.i.i.i.i.i.i.i.i.i.i = select i1 %cmp.not.i.i.i.i.i.i.i.i.i.i.i, i8* null, i8* %32
  %cmp.i5.i.i.i.i.i.i.i.i.i = icmp slt i8 %bf.load.i.i.i.i.i.i.i.i.i.i, 0
  %retval.0.i.i.i.i.i.i.i.i.i = select i1 %cmp.i5.i.i.i.i.i.i.i.i.i, i8* %spec.select.i.i.i.i.i.i.i.i.i.i.i, i8* %arraydecay.i.i.i.i.i.i.i.i.i.i.i.i
  %arrayidx.i.i.i.i.i.i.i.i = getelementptr inbounds i8, i8* %retval.0.i.i.i.i.i.i.i.i.i, i64 %__begin.0.i.i.i.i
  %33 = load i8, i8* %arrayidx.i.i.i.i.i.i.i.i, align 1, !tbaa !12, !noalias !48
  br label %"_ZZN6parlay8sequenceIcNS_9allocatorIcEELb1EEC1IZ10wordCountsRKS3_bE3$_0EEmOT_NS3_18_from_function_tagEmENKUlmE_clEm.exit.i.i.i.i"

"_ZZN6parlay8sequenceIcNS_9allocatorIcEELb1EEC1IZ10wordCountsRKS3_bE3$_0EEmOT_NS3_18_from_function_tagEmENKUlmE_clEm.exit.i.i.i.i": ; preds = %cond.false.i.i.i.i.i.i, %pfor.cond.i.i.i.i
  %cond.i.i.i.i.i.i = phi i8 [ %33, %cond.false.i.i.i.i.i.i ], [ 0, %pfor.cond.i.i.i.i ]
  %arrayidx.i.i.i.i.i = getelementptr inbounds i8, i8* %28, i64 %__begin.0.i.i.i.i
  %34 = add i8 %cond.i.i.i.i.i.i, -65
  %35 = icmp ult i8 %34, 26
  %add.i.i.i16.i.i.i = add i8 %cond.i.i.i.i.i.i, 32
  %36 = add i8 %cond.i.i.i.i.i.i, -97
  %37 = icmp ult i8 %36, 26
  %cond..i.i.i.i.i.i = select i1 %37, i8 %cond.i.i.i.i.i.i, i8 0
  %retval.0.i.i.i.i.i.i = select i1 %35, i8 %add.i.i.i16.i.i.i, i8 %cond..i.i.i.i.i.i
  store i8 %retval.0.i.i.i.i.i.i, i8* %arrayidx.i.i.i.i.i, align 1, !tbaa !12
  %inc.i.i.i.i = add nuw nsw i64 %__begin.0.i.i.i.i, 1
  %inneriter.nsub = add nsw i64 %inneriter, -1
  %inneriter.ncmp = icmp eq i64 %inneriter.nsub, 0
  br i1 %inneriter.ncmp, label %pfor.inc.i.i.i.i.reattach, label %pfor.cond.i.i.i.i, !llvm.loop !53

pfor.inc.i.i.i.i.reattach:                        ; preds = %"_ZZN6parlay8sequenceIcNS_9allocatorIcEELb1EEC1IZ10wordCountsRKS3_bE3$_0EEmOT_NS3_18_from_function_tagEmENKUlmE_clEm.exit.i.i.i.i"
  reattach within %syncreg.i.i.i.i.i.i.i, label %pfor.inc.i.i.i.i.strpm.outer

pfor.inc.i.i.i.i.strpm.outer:                     ; preds = %pfor.inc.i.i.i.i.reattach, %pfor.cond.i.i.i.i.strpm.outer
  %niter.nadd = add nuw nsw i64 %niter, 1
  %niter.ncmp = icmp eq i64 %niter.nadd, %stripiter
  br i1 %niter.ncmp, label %pfor.cond.i.i.i.i.epil.preheader, label %pfor.cond.i.i.i.i.strpm.outer, !llvm.loop !55

pfor.cond.i.i.i.i.epil.preheader:                 ; preds = %pfor.inc.i.i.i.i.strpm.outer, %pfor.cond.preheader.i.i.i.i, %pfor.cond.preheader.i.i.i.i.thread
  %.in = phi i64 [ %retval.0.i.i, %pfor.cond.preheader.i.i.i.i.thread ], [ %xtraiter, %pfor.cond.preheader.i.i.i.i ], [ %xtraiter, %pfor.inc.i.i.i.i.strpm.outer ]
  %retval.0.i36.i.i.i496 = phi i8* [ %23, %pfor.cond.preheader.i.i.i.i.thread ], [ %28, %pfor.cond.preheader.i.i.i.i ], [ %28, %pfor.inc.i.i.i.i.strpm.outer ]
  %arraydecay.i.i.i.i.i.i.i.i.i.i.i.i497 = getelementptr inbounds %"class.parlay::sequence", %"class.parlay::sequence"* %s, i64 0, i32 0, i32 0, i32 0, i32 0, i32 0, i32 0, i32 0, i64 0
  %buffer.i.i.i.i.i.i.i.i.i.i.i498 = bitcast %"class.parlay::sequence"* %s to %"struct.parlay::sequence_internal::sequence_base<char, parlay::allocator<char>, true>::storage_impl::capacitated_buffer::header"**
  %38 = add nuw nsw i64 %.in, 1
  %39 = and i64 %retval.0.i.i, 281474976708608
  br label %pfor.cond.i.i.i.i.epil

pfor.cond.i.i.i.i.epil:                           ; preds = %"_ZZN6parlay8sequenceIcNS_9allocatorIcEELb1EEC1IZ10wordCountsRKS3_bE3$_0EEmOT_NS3_18_from_function_tagEmENKUlmE_clEm.exit.i.i.i.i.epil", %pfor.cond.i.i.i.i.epil.preheader
  %__begin.0.i.i.i.i.epil = phi i64 [ %inc.i.i.i.i.epil, %"_ZZN6parlay8sequenceIcNS_9allocatorIcEELb1EEC1IZ10wordCountsRKS3_bE3$_0EEmOT_NS3_18_from_function_tagEmENKUlmE_clEm.exit.i.i.i.i.epil" ], [ %39, %pfor.cond.i.i.i.i.epil.preheader ]
  %epil.iter = phi i64 [ %epil.iter.sub, %"_ZZN6parlay8sequenceIcNS_9allocatorIcEELb1EEC1IZ10wordCountsRKS3_bE3$_0EEmOT_NS3_18_from_function_tagEmENKUlmE_clEm.exit.i.i.i.i.epil" ], [ %38, %pfor.cond.i.i.i.i.epil.preheader ]
  %cmp.i.i.i15.i.i.i.epil = icmp eq i64 %retval.0.i.i, %__begin.0.i.i.i.i.epil
  br i1 %cmp.i.i.i15.i.i.i.epil, label %"_ZZN6parlay8sequenceIcNS_9allocatorIcEELb1EEC1IZ10wordCountsRKS3_bE3$_0EEmOT_NS3_18_from_function_tagEmENKUlmE_clEm.exit.i.i.i.i.epil", label %cond.false.i.i.i.i.i.i.epil

cond.false.i.i.i.i.i.i.epil:                      ; preds = %pfor.cond.i.i.i.i.epil
  %bf.load.i.i.i.i.i.i.i.i.i.i.epil = load i8, i8* %flag.i.i.i, align 1, !noalias !48
  %40 = load %"struct.parlay::sequence_internal::sequence_base<char, parlay::allocator<char>, true>::storage_impl::capacitated_buffer::header"*, %"struct.parlay::sequence_internal::sequence_base<char, parlay::allocator<char>, true>::storage_impl::capacitated_buffer::header"** %buffer.i.i.i.i.i.i.i.i.i.i.i498, align 8, !noalias !48
  %cmp.not.i.i.i.i.i.i.i.i.i.i.i.epil = icmp eq %"struct.parlay::sequence_internal::sequence_base<char, parlay::allocator<char>, true>::storage_impl::capacitated_buffer::header"* %40, null
  %41 = getelementptr inbounds %"struct.parlay::sequence_internal::sequence_base<char, parlay::allocator<char>, true>::storage_impl::capacitated_buffer::header", %"struct.parlay::sequence_internal::sequence_base<char, parlay::allocator<char>, true>::storage_impl::capacitated_buffer::header"* %40, i64 0, i32 1, i32 0, i64 0
  %spec.select.i.i.i.i.i.i.i.i.i.i.i.epil = select i1 %cmp.not.i.i.i.i.i.i.i.i.i.i.i.epil, i8* null, i8* %41
  %cmp.i5.i.i.i.i.i.i.i.i.i.epil = icmp slt i8 %bf.load.i.i.i.i.i.i.i.i.i.i.epil, 0
  %retval.0.i.i.i.i.i.i.i.i.i.epil = select i1 %cmp.i5.i.i.i.i.i.i.i.i.i.epil, i8* %spec.select.i.i.i.i.i.i.i.i.i.i.i.epil, i8* %arraydecay.i.i.i.i.i.i.i.i.i.i.i.i497
  %arrayidx.i.i.i.i.i.i.i.i.epil = getelementptr inbounds i8, i8* %retval.0.i.i.i.i.i.i.i.i.i.epil, i64 %__begin.0.i.i.i.i.epil
  %42 = load i8, i8* %arrayidx.i.i.i.i.i.i.i.i.epil, align 1, !tbaa !12, !noalias !48
  br label %"_ZZN6parlay8sequenceIcNS_9allocatorIcEELb1EEC1IZ10wordCountsRKS3_bE3$_0EEmOT_NS3_18_from_function_tagEmENKUlmE_clEm.exit.i.i.i.i.epil"

"_ZZN6parlay8sequenceIcNS_9allocatorIcEELb1EEC1IZ10wordCountsRKS3_bE3$_0EEmOT_NS3_18_from_function_tagEmENKUlmE_clEm.exit.i.i.i.i.epil": ; preds = %cond.false.i.i.i.i.i.i.epil, %pfor.cond.i.i.i.i.epil
  %cond.i.i.i.i.i.i.epil = phi i8 [ %42, %cond.false.i.i.i.i.i.i.epil ], [ 0, %pfor.cond.i.i.i.i.epil ]
  %arrayidx.i.i.i.i.i.epil = getelementptr inbounds i8, i8* %retval.0.i36.i.i.i496, i64 %__begin.0.i.i.i.i.epil
  %43 = add i8 %cond.i.i.i.i.i.i.epil, -65
  %44 = icmp ult i8 %43, 26
  %add.i.i.i16.i.i.i.epil = add i8 %cond.i.i.i.i.i.i.epil, 32
  %45 = add i8 %cond.i.i.i.i.i.i.epil, -97
  %46 = icmp ult i8 %45, 26
  %cond..i.i.i.i.i.i.epil = select i1 %46, i8 %cond.i.i.i.i.i.i.epil, i8 0
  %retval.0.i.i.i.i.i.i.epil = select i1 %44, i8 %add.i.i.i16.i.i.i.epil, i8 %cond..i.i.i.i.i.i.epil
  store i8 %retval.0.i.i.i.i.i.i.epil, i8* %arrayidx.i.i.i.i.i.epil, align 1, !tbaa !12
  %inc.i.i.i.i.epil = add nuw nsw i64 %__begin.0.i.i.i.i.epil, 1
  %epil.iter.sub = add nsw i64 %epil.iter, -1
  %epil.iter.cmp.not = icmp eq i64 %epil.iter.sub, 0
  br i1 %epil.iter.cmp.not, label %pfor.cond.cleanup.i.i.i.i, label %pfor.cond.i.i.i.i.epil, !llvm.loop !59

pfor.cond.cleanup.i.i.i.i:                        ; preds = %"_ZZN6parlay8sequenceIcNS_9allocatorIcEELb1EEC1IZ10wordCountsRKS3_bE3$_0EEmOT_NS3_18_from_function_tagEmENKUlmE_clEm.exit.i.i.i.i.epil"
  sync within %syncreg.i.i.i.i.i.i.i, label %invoke.cont14

if.then.i.i.i.i.i123:                             ; preds = %call.i.i.i.i.i.noexc.i.i.i, %if.end.i.i.i.i
  %47 = landingpad { i8*, i32 }
          cleanup
  %48 = getelementptr inbounds %"class.std::ios_base::Init", %"class.std::ios_base::Init"* %alloc.i.i.i.i.i, i64 0, i32 0
  call void @llvm.lifetime.start.p0i8(i64 1, i8* nonnull %48) #37, !noalias !48
  %buffer.i.i.i.i.i = bitcast %"class.parlay::sequence"* %str to %"struct.parlay::sequence_internal::sequence_base<char, parlay::allocator<char>, true>::storage_impl::capacitated_buffer"*
  invoke void @_ZN6parlay17sequence_internal13sequence_baseIcNS_9allocatorIcEELb1EE12storage_impl18capacitated_buffer11free_bufferERNS2_ISt4byteEE(%"struct.parlay::sequence_internal::sequence_base<char, parlay::allocator<char>, true>::storage_impl::capacitated_buffer"* noundef nonnull align 1 dereferenceable(8) %buffer.i.i.i.i.i, %"class.std::ios_base::Init"* noundef nonnull align 1 dereferenceable(1) %alloc.i.i.i.i.i)
          to label %_ZN6parlay17sequence_internal13sequence_baseIcNS_9allocatorIcEELb1EED2Ev.exit.i.i unwind label %lpad.i.i.i.i

lpad.i.i.i.i:                                     ; preds = %if.then.i.i.i.i.i123
  %49 = landingpad { i8*, i32 }
          catch i8* null
  %50 = extractvalue { i8*, i32 } %49, 0
  call void @__clang_call_terminate(i8* %50) #40
  unreachable

_ZN6parlay17sequence_internal13sequence_baseIcNS_9allocatorIcEELb1EED2Ev.exit.i.i: ; preds = %if.then.i.i.i.i.i123
  call void @llvm.lifetime.end.p0i8(i64 1, i8* nonnull %48) #37, !noalias !48
  br label %ehcleanup91

invoke.cont14:                                    ; preds = %pfor.cond.cleanup.i.i.i.i
  %51 = getelementptr inbounds %"class.std::__cxx11::basic_string", %"class.std::__cxx11::basic_string"* %agg.tmp16, i64 0, i32 2
  %52 = bitcast %"class.std::__cxx11::basic_string"* %agg.tmp16 to %union.anon**
  store %union.anon* %51, %union.anon** %52, align 8, !tbaa !7
  %53 = bitcast %union.anon* %51 to i8*
  %54 = bitcast %union.anon* %51 to i32*
  store i32 2037411683, i32* %54, align 8
  %_M_p.i8.i.i134 = getelementptr inbounds %"class.std::__cxx11::basic_string", %"class.std::__cxx11::basic_string"* %agg.tmp16, i64 0, i32 0, i32 0
  %_M_string_length.i.i.i.i135 = getelementptr inbounds %"class.std::__cxx11::basic_string", %"class.std::__cxx11::basic_string"* %agg.tmp16, i64 0, i32 1
  store i64 4, i64* %_M_string_length.i.i.i.i135, align 8, !tbaa !10
  %arrayidx.i.i.i136 = getelementptr inbounds i8, i8* %53, i64 4
  store i8 0, i8* %arrayidx.i.i.i136, align 4, !tbaa !12
  invoke void @_ZN5timer4nextENSt7__cxx1112basic_stringIcSt11char_traitsIcESaIcEEE(%struct.timer* noundef nonnull align 8 dereferenceable(64) %t, %"class.std::__cxx11::basic_string"* noundef nonnull %agg.tmp16)
          to label %invoke.cont21 unwind label %lpad20

invoke.cont21:                                    ; preds = %invoke.cont14
  %55 = load i8*, i8** %_M_p.i8.i.i134, align 8, !tbaa !26
  %cmp.i.i.i142 = icmp eq i8* %55, %53
  br i1 %cmp.i.i.i142, label %_ZNSt7__cxx1112basic_stringIcSt11char_traitsIcESaIcEED2Ev.exit144.tf, label %if.then.i.i143

if.then.i.i143:                                   ; preds = %invoke.cont21
  call void @_ZdlPv(i8* noundef %55) #38
  br label %_ZNSt7__cxx1112basic_stringIcSt11char_traitsIcESaIcEED2Ev.exit144.tf

_ZNSt7__cxx1112basic_stringIcSt11char_traitsIcESaIcEED2Ev.exit144.tf: ; preds = %if.then.i.i143, %invoke.cont21
  %56 = getelementptr inbounds %"class.std::ios_base::Init", %"class.std::ios_base::Init"* %get_word, i64 0, i32 0
  call void @llvm.lifetime.start.p0i8(i64 1, i8* nonnull %56) #37
  %57 = bitcast %"class.parlay::sequence.1"* %words to i8*
  call void @llvm.lifetime.start.p0i8(i64 16, i8* nonnull %57) #37
  %58 = getelementptr inbounds %"class.std::ios_base::Init", %"class.std::ios_base::Init"* %ref.tmp25, i64 0, i32 0
  call void @llvm.lifetime.start.p0i8(i64 1, i8* nonnull %58) #37
  call void @llvm.experimental.noalias.scope.decl(metadata !60)
  %59 = bitcast %"struct.parlay::slice"* %A.i to i8*
  call void @llvm.lifetime.start.p0i8(i64 16, i8* nonnull %59) #37, !noalias !60
  %bf.load.i.i.i.i.i.i = load i8, i8* %flag.i.i.i.i, align 1, !noalias !60
  %buffer.i.i.i.i.i.i.i = bitcast %"class.parlay::sequence"* %str to %"struct.parlay::sequence_internal::sequence_base<char, parlay::allocator<char>, true>::storage_impl::capacitated_buffer::header"**
  %60 = load %"struct.parlay::sequence_internal::sequence_base<char, parlay::allocator<char>, true>::storage_impl::capacitated_buffer::header"*, %"struct.parlay::sequence_internal::sequence_base<char, parlay::allocator<char>, true>::storage_impl::capacitated_buffer::header"** %buffer.i.i.i.i.i.i.i, align 8, !noalias !60
  %cmp.not.i.i.i.i.i.i.i = icmp eq %"struct.parlay::sequence_internal::sequence_base<char, parlay::allocator<char>, true>::storage_impl::capacitated_buffer::header"* %60, null
  %61 = getelementptr inbounds %"struct.parlay::sequence_internal::sequence_base<char, parlay::allocator<char>, true>::storage_impl::capacitated_buffer::header", %"struct.parlay::sequence_internal::sequence_base<char, parlay::allocator<char>, true>::storage_impl::capacitated_buffer::header"* %60, i64 0, i32 1, i32 0, i64 0
  %spec.select.i.i.i.i.i.i.i = select i1 %cmp.not.i.i.i.i.i.i.i, i8* null, i8* %61
  %cmp.i5.i.i.i.i.i = icmp slt i8 %bf.load.i.i.i.i.i.i, 0
  %retval.0.i.i.i.i.i = select i1 %cmp.i5.i.i.i.i.i, i8* %spec.select.i.i.i.i.i.i.i, i8* %23
  %conv.i.i.i.i.i = zext i8 %bf.load.i.i.i.i.i.i to i64
  %n.i.i.i.i.i.i = getelementptr inbounds %"class.parlay::sequence", %"class.parlay::sequence"* %str, i64 0, i32 0, i32 0, i32 0, i32 0, i32 0, i32 0, i32 0, i64 8
  %62 = bitcast i8* %n.i.i.i.i.i.i to i48*
  %bf.load.i4.i.i.i.i.i = load i48, i48* %62, align 8, !noalias !60
  %bf.cast.i.i.i.i.i.i = zext i48 %bf.load.i4.i.i.i.i.i to i64
  %retval.0.i7.i.i.i.i = select i1 %cmp.i5.i.i.i.i.i, i64 %bf.cast.i.i.i.i.i.i, i64 %conv.i.i.i.i.i
  %add.ptr.i.i.i.i = getelementptr inbounds i8, i8* %retval.0.i.i.i.i.i, i64 %retval.0.i7.i.i.i.i
  %63 = getelementptr inbounds %"struct.parlay::slice", %"struct.parlay::slice"* %A.i, i64 0, i32 0
  store i8* %retval.0.i.i.i.i.i, i8** %63, align 8, !noalias !60
  %64 = getelementptr inbounds %"struct.parlay::slice", %"struct.parlay::slice"* %A.i, i64 0, i32 1
  store i8* %add.ptr.i.i.i.i, i8** %64, align 8, !noalias !60
  %65 = bitcast i64* %n.i to i8*
  call void @llvm.lifetime.start.p0i8(i64 8, i8* nonnull %65) #37, !noalias !60
  store i64 %retval.0.i7.i.i.i.i, i64* %n.i, align 8, !tbaa !3, !noalias !60
  %cmp.i = icmp eq i64 %retval.0.i7.i.i.i.i, 0
  br i1 %cmp.i, label %if.then.i145, label %if.end.i

if.then.i145:                                     ; preds = %_ZNSt7__cxx1112basic_stringIcSt11char_traitsIcESaIcEED2Ev.exit144.tf
  %call.i.i.i.i.i = invoke noundef nonnull align 8 dereferenceable(80) %"struct.parlay::internal::pool_allocator"* @_ZN6parlay8internal21get_default_allocatorEv()
          to label %_ZN6parlay8sequenceIPcNS_9allocatorIS1_EELb0EEC2Ev.exit.i unwind label %terminate.lpad.i.i.i.i.i, !noalias !60

terminate.lpad.i.i.i.i.i:                         ; preds = %if.then.i145
  %66 = landingpad { i8*, i32 }
          catch i8* null
  %67 = extractvalue { i8*, i32 } %66, 0
  call void @__clang_call_terminate(i8* %67) #40, !noalias !60
  unreachable

_ZN6parlay8sequenceIPcNS_9allocatorIS1_EELb0EEC2Ev.exit.i: ; preds = %if.then.i145
  call void @llvm.memset.p0i8.i64(i8* noundef nonnull align 8 dereferenceable(15) %57, i8 0, i64 15, i1 false) #37, !alias.scope !60
  br label %invoke.cont27

if.end.i:                                         ; preds = %_ZNSt7__cxx1112basic_stringIcSt11char_traitsIcESaIcEED2Ev.exit144.tf
  %68 = bitcast %class.anon.326* %is_start.i to i8*
  call void @llvm.lifetime.start.p0i8(i64 24, i8* nonnull %68) #37, !noalias !60
  %69 = getelementptr inbounds %class.anon.326, %class.anon.326* %is_start.i, i64 0, i32 0
  store %"class.std::ios_base::Init"* %ref.tmp25, %"class.std::ios_base::Init"** %69, align 8, !tbaa !52, !noalias !60
  %70 = getelementptr inbounds %class.anon.326, %class.anon.326* %is_start.i, i64 0, i32 1
  store %"struct.parlay::slice"* %A.i, %"struct.parlay::slice"** %70, align 8, !tbaa !52, !noalias !60
  %71 = getelementptr inbounds %class.anon.326, %class.anon.326* %is_start.i, i64 0, i32 2
  store i64* %n.i, i64** %71, align 8, !tbaa !52, !noalias !60
  %72 = bitcast %class.anon.327* %is_end.i to i8*
  call void @llvm.lifetime.start.p0i8(i64 24, i8* nonnull %72) #37, !noalias !60
  %73 = getelementptr inbounds %class.anon.327, %class.anon.327* %is_end.i, i64 0, i32 0
  store i64* %n.i, i64** %73, align 8, !tbaa !52, !noalias !60
  %74 = getelementptr inbounds %class.anon.327, %class.anon.327* %is_end.i, i64 0, i32 1
  store %"class.std::ios_base::Init"* %ref.tmp25, %"class.std::ios_base::Init"** %74, align 8, !tbaa !52, !noalias !60
  %75 = getelementptr inbounds %class.anon.327, %class.anon.327* %is_end.i, i64 0, i32 2
  store %"struct.parlay::slice"* %A.i, %"struct.parlay::slice"** %75, align 8, !tbaa !52, !noalias !60
  %76 = bitcast %"class.parlay::delayed_sequence"* %in.i to i8*
  call void @llvm.lifetime.start.p0i8(i64 24, i8* nonnull %76) #37, !noalias !60
  %add.i = add nuw nsw i64 %retval.0.i7.i.i.i.i, 1
  %first.i.i.i = getelementptr inbounds %"class.parlay::delayed_sequence", %"class.parlay::delayed_sequence"* %in.i, i64 0, i32 0
  store i64 0, i64* %first.i.i.i, align 8, !tbaa !61, !alias.scope !65, !noalias !60
  %last.i.i.i = getelementptr inbounds %"class.parlay::delayed_sequence", %"class.parlay::delayed_sequence"* %in.i, i64 0, i32 1
  store i64 %add.i, i64* %last.i.i.i, align 8, !tbaa !68, !alias.scope !65, !noalias !60
  %f.i.i.i = getelementptr inbounds %"class.parlay::delayed_sequence", %"class.parlay::delayed_sequence"* %in.i, i64 0, i32 2
  %77 = bitcast %"struct.parlay::copyable_function_wrapper"* %f.i.i.i to i64*
  %78 = ptrtoint %class.anon.326* %is_start.i to i64
  store i64 %78, i64* %77, align 8, !tbaa !52, !alias.scope !65, !noalias !60
  %79 = bitcast %"struct.std::pair.331"* %0 to i8*
  call void @llvm.lifetime.start.p0i8(i64 64, i8* nonnull %79) #37, !noalias !60
  call void @llvm.experimental.noalias.scope.decl(metadata !69)
  %80 = bitcast %"struct.parlay::internal::delayed::block_delayed_scan_t"* %s.i41.i to i8*
  call void @llvm.lifetime.start.p0i8(i64 48, i8* nonnull %80) #37, !noalias !70
  %81 = bitcast %"class.parlay::sequence.1"* %agg.tmp8.i.i.i to i8*
  call void @llvm.lifetime.start.p0i8(i64 16, i8* nonnull %81), !noalias !70
  %_M_data.i.i.i.i.i.i = getelementptr inbounds %"struct.parlay::internal::delayed::block_delayed_scan_t", %"struct.parlay::internal::delayed::block_delayed_scan_t"* %s.i41.i, i64 0, i32 0, i32 0, i32 0, i32 0
  store %"class.parlay::delayed_sequence"* %in.i, %"class.parlay::delayed_sequence"** %_M_data.i.i.i.i.i.i, align 8, !tbaa !71, !noalias !70
  %identity.sroa.0.0..sroa_idx.i.i.i = getelementptr inbounds %"struct.parlay::internal::delayed::block_delayed_scan_t", %"struct.parlay::internal::delayed::block_delayed_scan_t"* %s.i41.i, i64 0, i32 1, i32 0
  %identity.sroa.4.0..sroa_idx74.i.i.i = getelementptr inbounds %"struct.parlay::internal::delayed::block_delayed_scan_t", %"struct.parlay::internal::delayed::block_delayed_scan_t"* %s.i41.i, i64 0, i32 1, i32 1
  %block_sums.i.i.i = getelementptr inbounds %"struct.parlay::internal::delayed::block_delayed_scan_t", %"struct.parlay::internal::delayed::block_delayed_scan_t"* %s.i41.i, i64 0, i32 2
  %82 = bitcast i64* %identity.sroa.0.0..sroa_idx.i.i.i to i8*
  call void @llvm.memset.p0i8.i64(i8* noundef nonnull align 8 dereferenceable(16) %82, i8 0, i64 16, i1 false), !noalias !60
  %call.i.i.i.i.i.i.i = invoke noundef nonnull align 8 dereferenceable(80) %"struct.parlay::internal::pool_allocator"* @_ZN6parlay8internal21get_default_allocatorEv()
          to label %_ZN6parlay8sequenceISt4pairIllENS_9allocatorIS2_EELb0EEC2Ev.exit.i.i.i unwind label %terminate.lpad.i.i.i.i.i.i.i, !noalias !70

terminate.lpad.i.i.i.i.i.i.i:                     ; preds = %if.end.i
  %83 = landingpad { i8*, i32 }
          catch i8* null
  %84 = extractvalue { i8*, i32 } %83, 0
  call void @__clang_call_terminate(i8* %84) #40, !noalias !70
  unreachable

_ZN6parlay8sequenceISt4pairIllENS_9allocatorIS2_EELb0EEC2Ev.exit.i.i.i: ; preds = %if.end.i
  %85 = bitcast %"class.parlay::sequence.1"* %block_sums.i.i.i to i8*
  call void @llvm.memset.p0i8.i64(i8* noundef nonnull align 8 dereferenceable(15) %85, i8 0, i64 15, i1 false) #37, !noalias !70
  %call5.idx.val.i.i.i = load i64, i64* %first.i.i.i, align 8, !tbaa !61, !noalias !70
  %call5.idx51.val.i.i.i = load i64, i64* %last.i.i.i, align 8, !tbaa !68, !noalias !70
  %cmp.not.i.i.i.i.i.i = icmp ult i64 %call5.idx51.val.i.i.i, %call5.idx.val.i.i.i
  br i1 %cmp.not.i.i.i.i.i.i, label %cond.false.i.i.i.i.i.i146, label %"_ZN6parlay8internal9size_impl4sizeIRNS_16delayed_sequenceISt4pairIllES5_ZNS_10map_tokensIRNS_8sequenceIcNS_9allocatorIcEELb1EEERZ10wordCountsRKSA_bE3$_1Z10wordCountsSD_bE3$_2EEDaOT_OT0_OT1_EUlmE1_EEEEDaSI_.exit.i.i.i.i"

cond.false.i.i.i.i.i.i146:                        ; preds = %_ZN6parlay8sequenceISt4pairIllENS_9allocatorIS2_EELb0EEC2Ev.exit.i.i.i
  call void @__assert_fail(i8* noundef getelementptr inbounds ([14 x i8], [14 x i8]* @.str.30, i64 0, i64 0), i8* noundef getelementptr inbounds ([40 x i8], [40 x i8]* @.str.31, i64 0, i64 0), i32 noundef 301, i8* noundef getelementptr inbounds ([237 x i8], [237 x i8]* @"__PRETTY_FUNCTION__._ZNK6parlay16delayed_sequenceISt4pairIllES2_ZNS_10map_tokensIRNS_8sequenceIcNS_9allocatorIcEELb1EEERZ10wordCountsRKS7_bE3$_1Z10wordCountsSA_bE3$_2EEDaOT_OT0_OT1_EUlmE1_E4sizeEv", i64 0, i64 0)) #40, !noalias !70
  unreachable

"_ZN6parlay8internal9size_impl4sizeIRNS_16delayed_sequenceISt4pairIllES5_ZNS_10map_tokensIRNS_8sequenceIcNS_9allocatorIcEELb1EEERZ10wordCountsRKSA_bE3$_1Z10wordCountsSD_bE3$_2EEDaOT_OT0_OT1_EUlmE1_EEEEDaSI_.exit.i.i.i.i": ; preds = %_ZN6parlay8sequenceISt4pairIllENS_9allocatorIS2_EELb0EEC2Ev.exit.i.i.i
  %sub.i.i.i.i.i.i = sub i64 %call5.idx51.val.i.i.i, %call5.idx.val.i.i.i
  %cmp.i.i.i.i.i = icmp eq i64 %sub.i.i.i.i.i.i, 0
  br i1 %cmp.i.i.i.i.i, label %invoke.cont6.i.i.i148, label %cond.false.i.i.i.i.i

cond.false.i.i.i.i.i:                             ; preds = %"_ZN6parlay8internal9size_impl4sizeIRNS_16delayed_sequenceISt4pairIllES5_ZNS_10map_tokensIRNS_8sequenceIcNS_9allocatorIcEELb1EEERZ10wordCountsRKSA_bE3$_1Z10wordCountsSD_bE3$_2EEDaOT_OT0_OT1_EUlmE1_EEEEDaSI_.exit.i.i.i.i"
  %sub.i.i.i.i.i = add i64 %sub.i.i.i.i.i.i, -1
  %div.i.i.i.i.i = udiv i64 %sub.i.i.i.i.i, 2000
  %add.i.i.i.i.i = add nuw nsw i64 %div.i.i.i.i.i, 1
  br label %invoke.cont6.i.i.i148

invoke.cont6.i.i.i148:                            ; preds = %cond.false.i.i.i.i.i, %"_ZN6parlay8internal9size_impl4sizeIRNS_16delayed_sequenceISt4pairIllES5_ZNS_10map_tokensIRNS_8sequenceIcNS_9allocatorIcEELb1EEERZ10wordCountsRKSA_bE3$_1Z10wordCountsSD_bE3$_2EEDaOT_OT0_OT1_EUlmE1_EEEEDaSI_.exit.i.i.i.i"
  %cond.i.i.i.i.i = phi i64 [ %add.i.i.i.i.i, %cond.false.i.i.i.i.i ], [ 0, %"_ZN6parlay8internal9size_impl4sizeIRNS_16delayed_sequenceISt4pairIllES5_ZNS_10map_tokensIRNS_8sequenceIcNS_9allocatorIcEELb1EEERZ10wordCountsRKSA_bE3$_1Z10wordCountsSD_bE3$_2EEDaOT_OT0_OT1_EUlmE1_EEEEDaSI_.exit.i.i.i.i" ]
  %add.i.i.i147 = add nuw nsw i64 %cond.i.i.i.i.i, 1
  call void @llvm.experimental.noalias.scope.decl(metadata !73)
  call void @llvm.experimental.noalias.scope.decl(metadata !74)
  %call.i.i.i.i.i.i.i.i.i = invoke noundef nonnull align 8 dereferenceable(80) %"struct.parlay::internal::pool_allocator"* @_ZN6parlay8internal21get_default_allocatorEv()
          to label %_ZN6parlay17sequence_internal13sequence_baseISt4pairIllENS_9allocatorIS3_EELb0EEC2Ev.exit.i.i.i.i.i.i unwind label %terminate.lpad.i.i.i.i.i.i.i.i.i, !noalias !27

terminate.lpad.i.i.i.i.i.i.i.i.i:                 ; preds = %invoke.cont6.i.i.i148
  %86 = landingpad { i8*, i32 }
          catch i8* null
  %87 = extractvalue { i8*, i32 } %86, 0
  call void @__clang_call_terminate(i8* %87) #40, !noalias !27
  unreachable

_ZN6parlay17sequence_internal13sequence_baseISt4pairIllENS_9allocatorIS3_EELb0EEC2Ev.exit.i.i.i.i.i.i: ; preds = %invoke.cont6.i.i.i148
  call void @llvm.memset.p0i8.i64(i8* noundef nonnull align 8 dereferenceable(15) %81, i8 0, i64 15, i1 false) #37, !alias.scope !75, !noalias !70
  %call.i.i.i.i.i2.i.i.i.i.i.i = invoke noundef nonnull align 8 dereferenceable(80) %"struct.parlay::internal::pool_allocator"* @_ZN6parlay8internal21get_default_allocatorEv()
          to label %call.i.i.i.i.i.noexc.i.i.i.i.i.i unwind label %lpad.i.i.i.i.i.i, !noalias !27

call.i.i.i.i.i.noexc.i.i.i.i.i.i:                 ; preds = %_ZN6parlay17sequence_internal13sequence_baseISt4pairIllENS_9allocatorIS3_EELb0EEC2Ev.exit.i.i.i.i.i.i
  %mul.i.i.i.i.i.i.i.i.i = shl nuw nsw i64 %add.i.i.i147, 4
  %add.i.i.i.i.i.i.i.i.i = or i64 %mul.i.i.i.i.i.i.i.i.i, 8
  %call2.i.i.i.i.i3.i.i.i.i.i.i = invoke noundef i8* @_ZN6parlay8internal14pool_allocator8allocateEm(%"struct.parlay::internal::pool_allocator"* noundef nonnull align 8 dereferenceable(80) %call.i.i.i.i.i2.i.i.i.i.i.i, i64 noundef %add.i.i.i.i.i.i.i.i.i)
          to label %pfor.cond.preheader.i.i.i.i.i.i.i unwind label %lpad.i.i.i.i.i.i, !noalias !27

pfor.cond.preheader.i.i.i.i.i.i.i:                ; preds = %call.i.i.i.i.i.noexc.i.i.i.i.i.i
  %capacity.i.i.i.i.i.i.i.i.i.i = bitcast i8* %call2.i.i.i.i.i3.i.i.i.i.i.i to i64*
  store i64 %add.i.i.i147, i64* %capacity.i.i.i.i.i.i.i.i.i.i, align 8, !tbaa !76, !noalias !27
  %88 = getelementptr inbounds %"class.parlay::sequence.1", %"class.parlay::sequence.1"* %agg.tmp8.i.i.i, i64 0, i32 0, i32 0, i32 0, i32 0, i32 0
  store i8* %call2.i.i.i.i.i3.i.i.i.i.i.i, i8** %88, align 8, !tbaa.struct !51, !alias.scope !75, !noalias !70
  %ref.tmp.sroa.4.0..sroa_idx6.i.i.i.i.i.i.i = getelementptr inbounds %"class.parlay::sequence.1", %"class.parlay::sequence.1"* %agg.tmp8.i.i.i, i64 0, i32 0, i32 0, i32 0, i32 0, i32 1
  %ref.tmp.sroa.4.0..sroa_cast7.i.i.i.i.i.i.i = bitcast [6 x i8]* %ref.tmp.sroa.4.0..sroa_idx6.i.i.i.i.i.i.i to i48*
  %89 = trunc i64 %add.i.i.i147 to i48
  store i48 %89, i48* %ref.tmp.sroa.4.0..sroa_cast7.i.i.i.i.i.i.i, align 8, !alias.scope !75, !noalias !70
  %data.i.i.i.i.i.i.i.i.i.i = getelementptr inbounds i8, i8* %call2.i.i.i.i.i3.i.i.i.i.i.i, i64 8
  %90 = bitcast i8* %data.i.i.i.i.i.i.i.i.i.i to %struct.timeval*
  br label %pfor.cond.i.i.i.i.i.i.i

pfor.cond.i.i.i.i.i.i.i:                          ; preds = %pfor.inc.i.i.i.i.i.i.i, %pfor.cond.preheader.i.i.i.i.i.i.i
  %__begin.0.i.i.i.i.i.i.i = phi i64 [ %inc.i.i.i.i.i.i.i, %pfor.inc.i.i.i.i.i.i.i ], [ 0, %pfor.cond.preheader.i.i.i.i.i.i.i ]
  detach within %syncreg.i.i.i.i.i.i.i, label %pfor.body.entry.i.i.i.i.i.i.i, label %pfor.inc.i.i.i.i.i.i.i

pfor.body.entry.i.i.i.i.i.i.i:                    ; preds = %pfor.cond.i.i.i.i.i.i.i
  %cmp.i.i.i.i.i.i.i.i.i = icmp eq i64 %cond.i.i.i.i.i, %__begin.0.i.i.i.i.i.i.i
  br i1 %cmp.i.i.i.i.i.i.i.i.i, label %"_ZZN6parlay8sequenceISt4pairIllENS_9allocatorIS2_EELb0EEC1IZNS_8internal7delayed20block_delayed_scan_tIRNS_16delayed_sequenceIS2_S2_ZNS_10map_tokensIRNS0_IcNS3_IcEELb1EEERZ10wordCountsRKSD_bE3$_1Z10wordCountsSG_bE3$_2EEDaOT_OT0_OT1_EUlmE1_EELb0EZNSB_ISE_SI_SJ_EEDaSL_SN_SP_EUlS2_S2_E_S2_EC1ISS_EESL_ST_S2_EUlmE_EEmSL_NS5_18_from_function_tagEmENKUlmE_clEm.exit.i.i.i.i.i.i.i", label %if.end.i.i.i.i.i.i.i.i.i

if.end.i.i.i.i.i.i.i.i.i:                         ; preds = %pfor.body.entry.i.i.i.i.i.i.i
  %view_m.idx.val.i.i.i.i.i.i.i.i.i.i = load %"class.parlay::delayed_sequence"*, %"class.parlay::delayed_sequence"** %_M_data.i.i.i.i.i.i, align 8, !tbaa !71, !noalias !27
  %r.idx.i.i.i.i.i.i.i.i.i.i = getelementptr %"class.parlay::delayed_sequence", %"class.parlay::delayed_sequence"* %view_m.idx.val.i.i.i.i.i.i.i.i.i.i, i64 0, i32 0
  %r.idx.val.i.i.i.i.i.i.i.i.i.i = load i64, i64* %r.idx.i.i.i.i.i.i.i.i.i.i, align 8, !tbaa !61, !noalias !27
  %r.idx7.i.i.i.i.i.i.i.i.i.i = getelementptr %"class.parlay::delayed_sequence", %"class.parlay::delayed_sequence"* %view_m.idx.val.i.i.i.i.i.i.i.i.i.i, i64 0, i32 1
  %r.idx7.val.i.i.i.i.i.i.i.i.i.i = load i64, i64* %r.idx7.i.i.i.i.i.i.i.i.i.i, align 8, !tbaa !68, !noalias !27
  %cmp.not.i.i.i.i.i.i.i.i.i.i.i.i = icmp ult i64 %r.idx7.val.i.i.i.i.i.i.i.i.i.i, %r.idx.val.i.i.i.i.i.i.i.i.i.i
  br i1 %cmp.not.i.i.i.i.i.i.i.i.i.i.i.i, label %cond.false.i.i.i.i.i.i.i.i.i.i.i.i, label %"_ZN6parlay8internal9size_impl4sizeIRNS_16delayed_sequenceISt4pairIllES5_ZNS_10map_tokensIRNS_8sequenceIcNS_9allocatorIcEELb1EEERZ10wordCountsRKSA_bE3$_1Z10wordCountsSD_bE3$_2EEDaOT_OT0_OT1_EUlmE1_EEEEDaSI_.exit.i.i.i.i.i.i.i.i.i.i"

cond.false.i.i.i.i.i.i.i.i.i.i.i.i:               ; preds = %if.end.i.i.i.i.i.i.i.i.i
  call void @__assert_fail(i8* noundef getelementptr inbounds ([14 x i8], [14 x i8]* @.str.30, i64 0, i64 0), i8* noundef getelementptr inbounds ([40 x i8], [40 x i8]* @.str.31, i64 0, i64 0), i32 noundef 301, i8* noundef getelementptr inbounds ([237 x i8], [237 x i8]* @"__PRETTY_FUNCTION__._ZNK6parlay16delayed_sequenceISt4pairIllES2_ZNS_10map_tokensIRNS_8sequenceIcNS_9allocatorIcEELb1EEERZ10wordCountsRKS7_bE3$_1Z10wordCountsSA_bE3$_2EEDaOT_OT0_OT1_EUlmE1_E4sizeEv", i64 0, i64 0)) #40, !noalias !27
  unreachable

"_ZN6parlay8internal9size_impl4sizeIRNS_16delayed_sequenceISt4pairIllES5_ZNS_10map_tokensIRNS_8sequenceIcNS_9allocatorIcEELb1EEERZ10wordCountsRKSA_bE3$_1Z10wordCountsSD_bE3$_2EEDaOT_OT0_OT1_EUlmE1_EEEEDaSI_.exit.i.i.i.i.i.i.i.i.i.i": ; preds = %if.end.i.i.i.i.i.i.i.i.i
  %sub.i.i.i.i.i.i.i.i.i.i.i.i = sub i64 %r.idx7.val.i.i.i.i.i.i.i.i.i.i, %r.idx.val.i.i.i.i.i.i.i.i.i.i
  %mul.i.i.i.i.i.i.i.i.i.i = mul i64 %__begin.0.i.i.i.i.i.i.i, 2000
  %cmp.i.i.i.i.i.i.i.i.i.i.i = icmp ult i64 %sub.i.i.i.i.i.i.i.i.i.i.i.i, %mul.i.i.i.i.i.i.i.i.i.i
  %.sroa.speculated.i.i.i.i.i.i.i.i.i.i = select i1 %cmp.i.i.i.i.i.i.i.i.i.i.i, i64 %sub.i.i.i.i.i.i.i.i.i.i.i.i, i64 %mul.i.i.i.i.i.i.i.i.i.i
  %add.i.i.i.i.i.i.i.i.i.i.i = add i64 %.sroa.speculated.i.i.i.i.i.i.i.i.i.i, %r.idx.val.i.i.i.i.i.i.i.i.i.i
  %cmp.not.i.i.i.i.i.i.i.i.i.i.i149 = icmp ult i64 %r.idx7.val.i.i.i.i.i.i.i.i.i.i, %add.i.i.i.i.i.i.i.i.i.i.i
  br i1 %cmp.not.i.i.i.i.i.i.i.i.i.i.i149, label %cond.false.i.i.i.i.i.i.i.i.i.i.i, label %"_ZN6parlay8internal9size_impl4sizeIRNS_16delayed_sequenceISt4pairIllES5_ZNS_10map_tokensIRNS_8sequenceIcNS_9allocatorIcEELb1EEERZ10wordCountsRKSA_bE3$_1Z10wordCountsSD_bE3$_2EEDaOT_OT0_OT1_EUlmE1_EEEEDaSI_.exit.i37.i.i.i.i.i.i.i.i.i"

cond.false.i.i.i.i.i.i.i.i.i.i.i:                 ; preds = %"_ZN6parlay8internal9size_impl4sizeIRNS_16delayed_sequenceISt4pairIllES5_ZNS_10map_tokensIRNS_8sequenceIcNS_9allocatorIcEELb1EEERZ10wordCountsRKSA_bE3$_1Z10wordCountsSD_bE3$_2EEDaOT_OT0_OT1_EUlmE1_EEEEDaSI_.exit.i.i.i.i.i.i.i.i.i.i"
  call void @__assert_fail(i8* noundef getelementptr inbounds ([30 x i8], [30 x i8]* @.str.32, i64 0, i64 0), i8* noundef getelementptr inbounds ([40 x i8], [40 x i8]* @.str.31, i64 0, i64 0), i32 noundef 188, i8* noundef getelementptr inbounds ([286 x i8], [286 x i8]* @"__PRETTY_FUNCTION__._ZNK6parlay16delayed_sequenceISt4pairIllES2_ZNS_10map_tokensIRNS_8sequenceIcNS_9allocatorIcEELb1EEERZ10wordCountsRKS7_bE3$_1Z10wordCountsSA_bE3$_2EEDaOT_OT0_OT1_EUlmE1_E8iteratorplEm", i64 0, i64 0)) #40, !noalias !27
  unreachable

"_ZN6parlay8internal9size_impl4sizeIRNS_16delayed_sequenceISt4pairIllES5_ZNS_10map_tokensIRNS_8sequenceIcNS_9allocatorIcEELb1EEERZ10wordCountsRKSA_bE3$_1Z10wordCountsSD_bE3$_2EEDaOT_OT0_OT1_EUlmE1_EEEEDaSI_.exit.i37.i.i.i.i.i.i.i.i.i": ; preds = %"_ZN6parlay8internal9size_impl4sizeIRNS_16delayed_sequenceISt4pairIllES5_ZNS_10map_tokensIRNS_8sequenceIcNS_9allocatorIcEELb1EEERZ10wordCountsRKSA_bE3$_1Z10wordCountsSD_bE3$_2EEDaOT_OT0_OT1_EUlmE1_EEEEDaSI_.exit.i.i.i.i.i.i.i.i.i.i"
  %mul.i32.i.i.i.i.i.i.i.i.i = add i64 %mul.i.i.i.i.i.i.i.i.i.i, 2000
  %cmp.i.i33.i.i.i.i.i.i.i.i.i = icmp ult i64 %sub.i.i.i.i.i.i.i.i.i.i.i.i, %mul.i32.i.i.i.i.i.i.i.i.i
  %.sroa.speculated.i34.i.i.i.i.i.i.i.i.i = select i1 %cmp.i.i33.i.i.i.i.i.i.i.i.i, i64 %sub.i.i.i.i.i.i.i.i.i.i.i.i, i64 %mul.i32.i.i.i.i.i.i.i.i.i
  %add.i.i35.i.i.i.i.i.i.i.i.i = add i64 %.sroa.speculated.i34.i.i.i.i.i.i.i.i.i, %r.idx.val.i.i.i.i.i.i.i.i.i.i
  %cmp.not.i.i36.i.i.i.i.i.i.i.i.i = icmp ugt i64 %add.i.i35.i.i.i.i.i.i.i.i.i, %r.idx7.val.i.i.i.i.i.i.i.i.i.i
  br i1 %cmp.not.i.i36.i.i.i.i.i.i.i.i.i, label %cond.false.i.i38.i.i.i.i.i.i.i.i.i, label %for.cond.preheader.i.i.i.i.i.i.i.i.i

for.cond.preheader.i.i.i.i.i.i.i.i.i:             ; preds = %"_ZN6parlay8internal9size_impl4sizeIRNS_16delayed_sequenceISt4pairIllES5_ZNS_10map_tokensIRNS_8sequenceIcNS_9allocatorIcEELb1EEERZ10wordCountsRKSA_bE3$_1Z10wordCountsSD_bE3$_2EEDaOT_OT0_OT1_EUlmE1_EEEEDaSI_.exit.i37.i.i.i.i.i.i.i.i.i"
  %cmp.i.not69.i.i.i.i.i.i.i.i.i = icmp eq i64 %.sroa.speculated.i.i.i.i.i.i.i.i.i.i, %.sroa.speculated.i34.i.i.i.i.i.i.i.i.i
  br i1 %cmp.i.not69.i.i.i.i.i.i.i.i.i, label %"_ZZN6parlay8sequenceISt4pairIllENS_9allocatorIS2_EELb0EEC1IZNS_8internal7delayed20block_delayed_scan_tIRNS_16delayed_sequenceIS2_S2_ZNS_10map_tokensIRNS0_IcNS3_IcEELb1EEERZ10wordCountsRKSD_bE3$_1Z10wordCountsSG_bE3$_2EEDaOT_OT0_OT1_EUlmE1_EELb0EZNSB_ISE_SI_SJ_EEDaSL_SN_SP_EUlS2_S2_E_S2_EC1ISS_EESL_ST_S2_EUlmE_EEmSL_NS5_18_from_function_tagEmENKUlmE_clEm.exit.i.i.i.i.i.i.i", label %for.body.lr.ph.i.i.i.i.i.i.i.i.i

for.body.lr.ph.i.i.i.i.i.i.i.i.i:                 ; preds = %for.cond.preheader.i.i.i.i.i.i.i.i.i
  %f.idx.i.i.i.i.i.i.i.i.i.i.i = getelementptr inbounds %"class.parlay::delayed_sequence", %"class.parlay::delayed_sequence"* %view_m.idx.val.i.i.i.i.i.i.i.i.i.i, i64 0, i32 2, i32 0, i32 0
  %f.idx.val.i.i.i.i.i.i.i.i.i.i.i = load %class.anon.326*, %class.anon.326** %f.idx.i.i.i.i.i.i.i.i.i.i.i, align 8, !tbaa !78, !noalias !27
  %91 = getelementptr inbounds %class.anon.326, %class.anon.326* %f.idx.val.i.i.i.i.i.i.i.i.i.i.i, i64 0, i32 1
  %92 = getelementptr inbounds %class.anon.326, %class.anon.326* %f.idx.val.i.i.i.i.i.i.i.i.i.i.i, i64 0, i32 2
  %93 = sub i64 %r.idx7.val.i.i.i.i.i.i.i.i.i.i, %add.i.i.i.i.i.i.i.i.i.i.i
  %94 = xor i64 %.sroa.speculated.i.i.i.i.i.i.i.i.i.i, -1
  %95 = add i64 %.sroa.speculated.i34.i.i.i.i.i.i.i.i.i, %94
  %.not.not.i.i.i.i.i.i.i.i.i = icmp ugt i64 %93, %95
  br i1 %.not.not.i.i.i.i.i.i.i.i.i, label %for.body.i.us.i.i.i.i.i.i.i.i, label %for.body.i.i.i.i.i.i.i.i.i

for.body.i.us.i.i.i.i.i.i.i.i:                    ; preds = %"_ZNK6parlay16delayed_sequenceISt4pairIllES2_ZNS_10map_tokensIRNS_8sequenceIcNS_9allocatorIcEELb1EEERZ10wordCountsRKS7_bE3$_1Z10wordCountsSA_bE3$_2EEDaOT_OT0_OT1_EUlmE1_E8iteratordeEv.exit.i.us.i.i.i.i.i.i.i.i", %for.body.lr.ph.i.i.i.i.i.i.i.i.i
  %result.sroa.7.073.i.us.i.i.i.i.i.i.i.i = phi i64 [ %104, %"_ZNK6parlay16delayed_sequenceISt4pairIllES2_ZNS_10map_tokensIRNS_8sequenceIcNS_9allocatorIcEELb1EEERZ10wordCountsRKS7_bE3$_1Z10wordCountsSA_bE3$_2EEDaOT_OT0_OT1_EUlmE1_E8iteratordeEv.exit.i.us.i.i.i.i.i.i.i.i" ], [ 0, %for.body.lr.ph.i.i.i.i.i.i.i.i.i ]
  %result.sroa.0.072.i.us.i.i.i.i.i.i.i.i = phi i64 [ %add.i.i.i.i.i64.i.us.i.i.i.i.i.i.i.i, %"_ZNK6parlay16delayed_sequenceISt4pairIllES2_ZNS_10map_tokensIRNS_8sequenceIcNS_9allocatorIcEELb1EEERZ10wordCountsRKS7_bE3$_1Z10wordCountsSA_bE3$_2EEDaOT_OT0_OT1_EUlmE1_E8iteratordeEv.exit.i.us.i.i.i.i.i.i.i.i" ], [ 0, %for.body.lr.ph.i.i.i.i.i.i.i.i.i ]
  %it.sroa.5.070.i.us.i.i.i.i.i.i.i.i = phi i64 [ %inc.i.i.us.i.i.i.i.i.i.i.i, %"_ZNK6parlay16delayed_sequenceISt4pairIllES2_ZNS_10map_tokensIRNS_8sequenceIcNS_9allocatorIcEELb1EEERZ10wordCountsRKS7_bE3$_1Z10wordCountsSA_bE3$_2EEDaOT_OT0_OT1_EUlmE1_E8iteratordeEv.exit.i.us.i.i.i.i.i.i.i.i" ], [ %add.i.i.i.i.i.i.i.i.i.i.i, %for.body.lr.ph.i.i.i.i.i.i.i.i.i ]
  %cmp.i.i.i.i.i.i.i.i.us.i.i.i.i.i.i.i.i = icmp eq i64 %it.sroa.5.070.i.us.i.i.i.i.i.i.i.i, 0
  br i1 %cmp.i.i.i.i.i.i.i.i.us.i.i.i.i.i.i.i.i, label %land.lhs.true.i.i.i.i.i.i.i.i.us.i.i.i.i.i.i.i.i, label %lor.lhs.false.i.i.i.i.i.i.i.i.us.i.i.i.i.i.i.i.i

lor.lhs.false.i.i.i.i.i.i.i.i.us.i.i.i.i.i.i.i.i: ; preds = %for.body.i.us.i.i.i.i.i.i.i.i
  %96 = load %"struct.parlay::slice"*, %"struct.parlay::slice"** %91, align 8, !tbaa !79, !noalias !27
  %sub.i.i.i.i.i.i.i.i.us.i.i.i.i.i.i.i.i = add i64 %it.sroa.5.070.i.us.i.i.i.i.i.i.i.i, -1
  %s.i.i.i.i.i.i.i.i.i.us.i.i.i.i.i.i.i.i = getelementptr inbounds %"struct.parlay::slice", %"struct.parlay::slice"* %96, i64 0, i32 0
  %97 = load i8*, i8** %s.i.i.i.i.i.i.i.i.i.us.i.i.i.i.i.i.i.i, align 8, !tbaa !81, !noalias !27
  %arrayidx.i.i.i.i.i.i.i.i.i.us.i.i.i.i.i.i.i.i = getelementptr inbounds i8, i8* %97, i64 %sub.i.i.i.i.i.i.i.i.us.i.i.i.i.i.i.i.i
  %98 = load i8, i8* %arrayidx.i.i.i.i.i.i.i.i.i.us.i.i.i.i.i.i.i.i, align 1, !tbaa !12, !noalias !27
  %cmp.i.i.i.i.i.i.i.i.i.us.i.i.i.i.i.i.i.i = icmp eq i8 %98, 0
  br i1 %cmp.i.i.i.i.i.i.i.i.i.us.i.i.i.i.i.i.i.i, label %land.lhs.true.i.i.i.i.i.i.i.i.us.i.i.i.i.i.i.i.i, label %"_ZNK6parlay16delayed_sequenceISt4pairIllES2_ZNS_10map_tokensIRNS_8sequenceIcNS_9allocatorIcEELb1EEERZ10wordCountsRKS7_bE3$_1Z10wordCountsSA_bE3$_2EEDaOT_OT0_OT1_EUlmE1_E8iteratordeEv.exit.i.us.i.i.i.i.i.i.i.i"

land.lhs.true.i.i.i.i.i.i.i.i.us.i.i.i.i.i.i.i.i: ; preds = %lor.lhs.false.i.i.i.i.i.i.i.i.us.i.i.i.i.i.i.i.i, %for.body.i.us.i.i.i.i.i.i.i.i
  %99 = load i64*, i64** %92, align 8, !tbaa !83, !noalias !27
  %100 = load i64, i64* %99, align 8, !tbaa !3, !noalias !27
  %cmp3.not.i.i.i.i.i.i.i.i.us.i.i.i.i.i.i.i.i = icmp eq i64 %100, %it.sroa.5.070.i.us.i.i.i.i.i.i.i.i
  br i1 %cmp3.not.i.i.i.i.i.i.i.i.us.i.i.i.i.i.i.i.i, label %"_ZNK6parlay16delayed_sequenceISt4pairIllES2_ZNS_10map_tokensIRNS_8sequenceIcNS_9allocatorIcEELb1EEERZ10wordCountsRKS7_bE3$_1Z10wordCountsSA_bE3$_2EEDaOT_OT0_OT1_EUlmE1_E8iteratordeEv.exit.i.us.i.i.i.i.i.i.i.i", label %"_ZZN6parlay10map_tokensIRNS_8sequenceIcNS_9allocatorIcEELb1EEERZ10wordCountsRKS4_bE3$_1Z10wordCountsS7_bE3$_2EEDaOT_OT0_OT1_ENKUlmE_clEm.exit.i.i.i.i.i.i.i.us.i.i.i.i.i.i.i.i"

"_ZZN6parlay10map_tokensIRNS_8sequenceIcNS_9allocatorIcEELb1EEERZ10wordCountsRKS4_bE3$_1Z10wordCountsS7_bE3$_2EEDaOT_OT0_OT1_ENKUlmE_clEm.exit.i.i.i.i.i.i.i.us.i.i.i.i.i.i.i.i": ; preds = %land.lhs.true.i.i.i.i.i.i.i.i.us.i.i.i.i.i.i.i.i
  %101 = load %"struct.parlay::slice"*, %"struct.parlay::slice"** %91, align 8, !tbaa !79, !noalias !27
  %s.i9.i.i.i.i.i.i.i.i.us.i.i.i.i.i.i.i.i = getelementptr inbounds %"struct.parlay::slice", %"struct.parlay::slice"* %101, i64 0, i32 0
  %102 = load i8*, i8** %s.i9.i.i.i.i.i.i.i.i.us.i.i.i.i.i.i.i.i, align 8, !tbaa !81, !noalias !27
  %arrayidx.i10.i.i.i.i.i.i.i.i.us.i.i.i.i.i.i.i.i = getelementptr inbounds i8, i8* %102, i64 %it.sroa.5.070.i.us.i.i.i.i.i.i.i.i
  %103 = load i8, i8* %arrayidx.i10.i.i.i.i.i.i.i.i.us.i.i.i.i.i.i.i.i, align 1, !tbaa !12, !noalias !27
  %cmp.i11.i.not.i.i.i.i.i.i.i.us.i.i.i.i.i.i.i.i = icmp eq i8 %103, 0
  %not.cmp.i11.i.not.i.i.i.i.i.i.i.us.i.i.i.i.i.i.i.i = xor i1 %cmp.i11.i.not.i.i.i.i.i.i.i.us.i.i.i.i.i.i.i.i, true
  %add.i.i.i.i.i.i.us.i.i.i.i.i.i.i.i = zext i1 %not.cmp.i11.i.not.i.i.i.i.i.i.i.us.i.i.i.i.i.i.i.i to i64
  %spec.select.i.us.i.i.i.i.i.i.i.i = add nsw i64 %result.sroa.0.072.i.us.i.i.i.i.i.i.i.i, %add.i.i.i.i.i.i.us.i.i.i.i.i.i.i.i
  %spec.select66.i.us.i.i.i.i.i.i.i.i = select i1 %cmp.i11.i.not.i.i.i.i.i.i.i.us.i.i.i.i.i.i.i.i, i64 %result.sroa.7.073.i.us.i.i.i.i.i.i.i.i, i64 %it.sroa.5.070.i.us.i.i.i.i.i.i.i.i
  br label %"_ZNK6parlay16delayed_sequenceISt4pairIllES2_ZNS_10map_tokensIRNS_8sequenceIcNS_9allocatorIcEELb1EEERZ10wordCountsRKS7_bE3$_1Z10wordCountsSA_bE3$_2EEDaOT_OT0_OT1_EUlmE1_E8iteratordeEv.exit.i.us.i.i.i.i.i.i.i.i"

"_ZNK6parlay16delayed_sequenceISt4pairIllES2_ZNS_10map_tokensIRNS_8sequenceIcNS_9allocatorIcEELb1EEERZ10wordCountsRKS7_bE3$_1Z10wordCountsSA_bE3$_2EEDaOT_OT0_OT1_EUlmE1_E8iteratordeEv.exit.i.us.i.i.i.i.i.i.i.i": ; preds = %"_ZZN6parlay10map_tokensIRNS_8sequenceIcNS_9allocatorIcEELb1EEERZ10wordCountsRKS4_bE3$_1Z10wordCountsS7_bE3$_2EEDaOT_OT0_OT1_ENKUlmE_clEm.exit.i.i.i.i.i.i.i.us.i.i.i.i.i.i.i.i", %land.lhs.true.i.i.i.i.i.i.i.i.us.i.i.i.i.i.i.i.i, %lor.lhs.false.i.i.i.i.i.i.i.i.us.i.i.i.i.i.i.i.i
  %add.i.i.i.i.i64.i.us.i.i.i.i.i.i.i.i = phi i64 [ %result.sroa.0.072.i.us.i.i.i.i.i.i.i.i, %lor.lhs.false.i.i.i.i.i.i.i.i.us.i.i.i.i.i.i.i.i ], [ %result.sroa.0.072.i.us.i.i.i.i.i.i.i.i, %land.lhs.true.i.i.i.i.i.i.i.i.us.i.i.i.i.i.i.i.i ], [ %spec.select.i.us.i.i.i.i.i.i.i.i, %"_ZZN6parlay10map_tokensIRNS_8sequenceIcNS_9allocatorIcEELb1EEERZ10wordCountsRKS4_bE3$_1Z10wordCountsS7_bE3$_2EEDaOT_OT0_OT1_ENKUlmE_clEm.exit.i.i.i.i.i.i.i.us.i.i.i.i.i.i.i.i" ]
  %104 = phi i64 [ %result.sroa.7.073.i.us.i.i.i.i.i.i.i.i, %lor.lhs.false.i.i.i.i.i.i.i.i.us.i.i.i.i.i.i.i.i ], [ %result.sroa.7.073.i.us.i.i.i.i.i.i.i.i, %land.lhs.true.i.i.i.i.i.i.i.i.us.i.i.i.i.i.i.i.i ], [ %spec.select66.i.us.i.i.i.i.i.i.i.i, %"_ZZN6parlay10map_tokensIRNS_8sequenceIcNS_9allocatorIcEELb1EEERZ10wordCountsRKS4_bE3$_1Z10wordCountsS7_bE3$_2EEDaOT_OT0_OT1_ENKUlmE_clEm.exit.i.i.i.i.i.i.i.us.i.i.i.i.i.i.i.i" ]
  %inc.i.i.us.i.i.i.i.i.i.i.i = add nuw i64 %it.sroa.5.070.i.us.i.i.i.i.i.i.i.i, 1
  %cmp.i.not.i.us.i.i.i.i.i.i.i.i = icmp eq i64 %inc.i.i.us.i.i.i.i.i.i.i.i, %add.i.i35.i.i.i.i.i.i.i.i.i
  br i1 %cmp.i.not.i.us.i.i.i.i.i.i.i.i, label %"_ZZN6parlay8sequenceISt4pairIllENS_9allocatorIS2_EELb0EEC1IZNS_8internal7delayed20block_delayed_scan_tIRNS_16delayed_sequenceIS2_S2_ZNS_10map_tokensIRNS0_IcNS3_IcEELb1EEERZ10wordCountsRKSD_bE3$_1Z10wordCountsSG_bE3$_2EEDaOT_OT0_OT1_EUlmE1_EELb0EZNSB_ISE_SI_SJ_EEDaSL_SN_SP_EUlS2_S2_E_S2_EC1ISS_EESL_ST_S2_EUlmE_EEmSL_NS5_18_from_function_tagEmENKUlmE_clEm.exit.i.i.i.i.i.i.i", label %for.body.i.us.i.i.i.i.i.i.i.i, !llvm.loop !84

cond.false.i.i38.i.i.i.i.i.i.i.i.i:               ; preds = %"_ZN6parlay8internal9size_impl4sizeIRNS_16delayed_sequenceISt4pairIllES5_ZNS_10map_tokensIRNS_8sequenceIcNS_9allocatorIcEELb1EEERZ10wordCountsRKSA_bE3$_1Z10wordCountsSD_bE3$_2EEDaOT_OT0_OT1_EUlmE1_EEEEDaSI_.exit.i37.i.i.i.i.i.i.i.i.i"
  call void @__assert_fail(i8* noundef getelementptr inbounds ([30 x i8], [30 x i8]* @.str.32, i64 0, i64 0), i8* noundef getelementptr inbounds ([40 x i8], [40 x i8]* @.str.31, i64 0, i64 0), i32 noundef 188, i8* noundef getelementptr inbounds ([286 x i8], [286 x i8]* @"__PRETTY_FUNCTION__._ZNK6parlay16delayed_sequenceISt4pairIllES2_ZNS_10map_tokensIRNS_8sequenceIcNS_9allocatorIcEELb1EEERZ10wordCountsRKS7_bE3$_1Z10wordCountsSA_bE3$_2EEDaOT_OT0_OT1_EUlmE1_E8iteratorplEm", i64 0, i64 0)) #40, !noalias !27
  unreachable

for.body.i.i.i.i.i.i.i.i.i:                       ; preds = %for.body.lr.ph.i.i.i.i.i.i.i.i.i
  call void @__assert_fail(i8* noundef getelementptr inbounds ([21 x i8], [21 x i8]* @.str.33, i64 0, i64 0), i8* noundef getelementptr inbounds ([40 x i8], [40 x i8]* @.str.31, i64 0, i64 0), i32 noundef 108, i8* noundef getelementptr inbounds ([276 x i8], [276 x i8]* @"__PRETTY_FUNCTION__._ZN6parlay16delayed_sequenceISt4pairIllES2_ZNS_10map_tokensIRNS_8sequenceIcNS_9allocatorIcEELb1EEERZ10wordCountsRKS7_bE3$_1Z10wordCountsSA_bE3$_2EEDaOT_OT0_OT1_EUlmE1_E8iteratorppEv", i64 0, i64 0)) #40, !noalias !27
  unreachable

"_ZZN6parlay8sequenceISt4pairIllENS_9allocatorIS2_EELb0EEC1IZNS_8internal7delayed20block_delayed_scan_tIRNS_16delayed_sequenceIS2_S2_ZNS_10map_tokensIRNS0_IcNS3_IcEELb1EEERZ10wordCountsRKSD_bE3$_1Z10wordCountsSG_bE3$_2EEDaOT_OT0_OT1_EUlmE1_EELb0EZNSB_ISE_SI_SJ_EEDaSL_SN_SP_EUlS2_S2_E_S2_EC1ISS_EESL_ST_S2_EUlmE_EEmSL_NS5_18_from_function_tagEmENKUlmE_clEm.exit.i.i.i.i.i.i.i": ; preds = %"_ZNK6parlay16delayed_sequenceISt4pairIllES2_ZNS_10map_tokensIRNS_8sequenceIcNS_9allocatorIcEELb1EEERZ10wordCountsRKS7_bE3$_1Z10wordCountsSA_bE3$_2EEDaOT_OT0_OT1_EUlmE1_E8iteratordeEv.exit.i.us.i.i.i.i.i.i.i.i", %for.cond.preheader.i.i.i.i.i.i.i.i.i, %pfor.body.entry.i.i.i.i.i.i.i
  %retval.sroa.0.0.i.i.i.i.i.i.i.i.i = phi i64 [ 0, %pfor.body.entry.i.i.i.i.i.i.i ], [ 0, %for.cond.preheader.i.i.i.i.i.i.i.i.i ], [ %add.i.i.i.i.i64.i.us.i.i.i.i.i.i.i.i, %"_ZNK6parlay16delayed_sequenceISt4pairIllES2_ZNS_10map_tokensIRNS_8sequenceIcNS_9allocatorIcEELb1EEERZ10wordCountsRKS7_bE3$_1Z10wordCountsSA_bE3$_2EEDaOT_OT0_OT1_EUlmE1_E8iteratordeEv.exit.i.us.i.i.i.i.i.i.i.i" ]
  %retval.sroa.3.0.i.i.i.i.i.i.i.i.i = phi i64 [ 0, %pfor.body.entry.i.i.i.i.i.i.i ], [ 0, %for.cond.preheader.i.i.i.i.i.i.i.i.i ], [ %104, %"_ZNK6parlay16delayed_sequenceISt4pairIllES2_ZNS_10map_tokensIRNS_8sequenceIcNS_9allocatorIcEELb1EEERZ10wordCountsRKS7_bE3$_1Z10wordCountsSA_bE3$_2EEDaOT_OT0_OT1_EUlmE1_E8iteratordeEv.exit.i.us.i.i.i.i.i.i.i.i" ]
  %ref.tmp.sroa.0.0..sroa_idx.i.i.i.i.i.i.i.i = getelementptr inbounds %struct.timeval, %struct.timeval* %90, i64 %__begin.0.i.i.i.i.i.i.i, i32 0
  store i64 %retval.sroa.0.0.i.i.i.i.i.i.i.i.i, i64* %ref.tmp.sroa.0.0..sroa_idx.i.i.i.i.i.i.i.i, align 8, !noalias !27
  %ref.tmp.sroa.4.0..sroa_idx5.i.i.i.i.i.i.i.i = getelementptr inbounds %struct.timeval, %struct.timeval* %90, i64 %__begin.0.i.i.i.i.i.i.i, i32 1
  store i64 %retval.sroa.3.0.i.i.i.i.i.i.i.i.i, i64* %ref.tmp.sroa.4.0..sroa_idx5.i.i.i.i.i.i.i.i, align 8, !noalias !27
  reattach within %syncreg.i.i.i.i.i.i.i, label %pfor.inc.i.i.i.i.i.i.i

pfor.inc.i.i.i.i.i.i.i:                           ; preds = %"_ZZN6parlay8sequenceISt4pairIllENS_9allocatorIS2_EELb0EEC1IZNS_8internal7delayed20block_delayed_scan_tIRNS_16delayed_sequenceIS2_S2_ZNS_10map_tokensIRNS0_IcNS3_IcEELb1EEERZ10wordCountsRKSD_bE3$_1Z10wordCountsSG_bE3$_2EEDaOT_OT0_OT1_EUlmE1_EELb0EZNSB_ISE_SI_SJ_EEDaSL_SN_SP_EUlS2_S2_E_S2_EC1ISS_EESL_ST_S2_EUlmE_EEmSL_NS5_18_from_function_tagEmENKUlmE_clEm.exit.i.i.i.i.i.i.i", %pfor.cond.i.i.i.i.i.i.i
  %inc.i.i.i.i.i.i.i = add nuw nsw i64 %__begin.0.i.i.i.i.i.i.i, 1
  %exitcond.not.i.i.i.i.i.i.i = icmp eq i64 %__begin.0.i.i.i.i.i.i.i, %cond.i.i.i.i.i
  br i1 %exitcond.not.i.i.i.i.i.i.i, label %pfor.cond.cleanup.i.i.i.i.i.i.i, label %pfor.cond.i.i.i.i.i.i.i, !llvm.loop !86

pfor.cond.cleanup.i.i.i.i.i.i.i:                  ; preds = %pfor.inc.i.i.i.i.i.i.i
  sync within %syncreg.i.i.i.i.i.i.i, label %invoke.cont13.i.i.i

lpad.i.i.i.i.i.i:                                 ; preds = %call.i.i.i.i.i.noexc.i.i.i.i.i.i, %_ZN6parlay17sequence_internal13sequence_baseISt4pairIllENS_9allocatorIS3_EELb0EEC2Ev.exit.i.i.i.i.i.i
  %105 = landingpad { i8*, i32 }
          cleanup
  %106 = getelementptr inbounds %"class.std::ios_base::Init", %"class.std::ios_base::Init"* %alloc.i.i.i.i.i.i.i.i, i64 0, i32 0
  call void @llvm.lifetime.start.p0i8(i64 1, i8* nonnull %106) #37, !noalias !27
  %buffer.i.i.i.i.i.i.i.i = bitcast %"class.parlay::sequence.1"* %agg.tmp8.i.i.i to %"struct.parlay::sequence_internal::sequence_base<std::pair<long, long>, parlay::allocator<std::pair<long, long>>, false>::storage_impl::capacitated_buffer"*
  invoke void @_ZN6parlay17sequence_internal13sequence_baseISt4pairIllENS_9allocatorIS3_EELb0EE12storage_impl18capacitated_buffer11free_bufferERNS4_ISt4byteEE(%"struct.parlay::sequence_internal::sequence_base<std::pair<long, long>, parlay::allocator<std::pair<long, long>>, false>::storage_impl::capacitated_buffer"* noundef nonnull align 1 dereferenceable(8) %buffer.i.i.i.i.i.i.i.i, %"class.std::ios_base::Init"* noundef nonnull align 1 dereferenceable(1) %alloc.i.i.i.i.i.i.i.i)
          to label %_ZN6parlay17sequence_internal13sequence_baseISt4pairIllENS_9allocatorIS3_EELb0EED2Ev.exit.i.i.i.i.i unwind label %lpad.i.i.i.i.i.i.i, !noalias !70

lpad.i.i.i.i.i.i.i:                               ; preds = %lpad.i.i.i.i.i.i
  %107 = landingpad { i8*, i32 }
          catch i8* null
  %108 = extractvalue { i8*, i32 } %107, 0
  call void @__clang_call_terminate(i8* %108) #40, !noalias !70
  unreachable

_ZN6parlay17sequence_internal13sequence_baseISt4pairIllENS_9allocatorIS3_EELb0EED2Ev.exit.i.i.i.i.i: ; preds = %lpad.i.i.i.i.i.i
  call void @llvm.lifetime.end.p0i8(i64 1, i8* nonnull %106) #37, !noalias !27
  call void @llvm.memset.p0i8.i64(i8* noundef nonnull align 8 dereferenceable(15) %81, i8 0, i64 15, i1 false) #37, !alias.scope !75, !noalias !70
  br label %ehcleanup43.i.i.i

invoke.cont13.i.i.i:                              ; preds = %pfor.cond.cleanup.i.i.i.i.i.i.i
  %109 = getelementptr inbounds [15 x i8], [15 x i8]* %tmp.i.i.i.i.i.i, i64 0, i64 0
  call void @llvm.lifetime.start.p0i8(i64 15, i8* nonnull %109)
  call void @llvm.memcpy.p0i8.p0i8.i64(i8* noundef nonnull align 1 dereferenceable(15) %109, i8* noundef nonnull align 8 dereferenceable(15) %85, i64 15, i1 false) #37, !noalias !70
  call void @llvm.memcpy.p0i8.p0i8.i64(i8* noundef nonnull align 8 dereferenceable(15) %85, i8* noundef nonnull align 8 dereferenceable(15) %81, i64 15, i1 false) #37, !noalias !70
  call void @llvm.memcpy.p0i8.p0i8.i64(i8* noundef nonnull align 8 dereferenceable(15) %81, i8* noundef nonnull align 1 dereferenceable(15) %109, i64 15, i1 false) #37, !noalias !70
  call void @llvm.lifetime.end.p0i8(i64 15, i8* nonnull %109)
  %110 = getelementptr inbounds %"class.std::ios_base::Init", %"class.std::ios_base::Init"* %alloc.i.i.i.i.i.i, i64 0, i32 0
  call void @llvm.lifetime.start.p0i8(i64 1, i8* nonnull %110) #37, !noalias !70
  %buffer.i.i.i.i.i.i = bitcast %"class.parlay::sequence.1"* %agg.tmp8.i.i.i to %"struct.parlay::sequence_internal::sequence_base<std::pair<long, long>, parlay::allocator<std::pair<long, long>>, false>::storage_impl::capacitated_buffer"*
  invoke void @_ZN6parlay17sequence_internal13sequence_baseISt4pairIllENS_9allocatorIS3_EELb0EE12storage_impl18capacitated_buffer11free_bufferERNS4_ISt4byteEE(%"struct.parlay::sequence_internal::sequence_base<std::pair<long, long>, parlay::allocator<std::pair<long, long>>, false>::storage_impl::capacitated_buffer"* noundef nonnull align 1 dereferenceable(8) %buffer.i.i.i.i.i.i, %"class.std::ios_base::Init"* noundef nonnull align 1 dereferenceable(1) %alloc.i.i.i.i.i.i)
          to label %invoke.cont28.i.i.i unwind label %lpad.i.i.i.i.i, !noalias !70

lpad.i.i.i.i.i:                                   ; preds = %invoke.cont13.i.i.i
  %111 = landingpad { i8*, i32 }
          catch i8* null
  %112 = extractvalue { i8*, i32 } %111, 0
  call void @__clang_call_terminate(i8* %112) #40, !noalias !70
  unreachable

invoke.cont28.i.i.i:                              ; preds = %invoke.cont13.i.i.i
  call void @llvm.lifetime.end.p0i8(i64 1, i8* nonnull %110) #37, !noalias !70
  call void @llvm.memset.p0i8.i64(i8* noundef nonnull align 8 dereferenceable(15) %81, i8 0, i64 15, i1 false) #37, !noalias !70
  %buffer.i.i.i.i.i.i.i.i.i = bitcast %"class.parlay::sequence.1"* %block_sums.i.i.i to %"struct.parlay::sequence_internal::sequence_base<std::pair<long, long>, parlay::allocator<std::pair<long, long>>, false>::storage_impl::capacitated_buffer::header"**
  %113 = load %"struct.parlay::sequence_internal::sequence_base<std::pair<long, long>, parlay::allocator<std::pair<long, long>>, false>::storage_impl::capacitated_buffer::header"*, %"struct.parlay::sequence_internal::sequence_base<std::pair<long, long>, parlay::allocator<std::pair<long, long>>, false>::storage_impl::capacitated_buffer::header"** %buffer.i.i.i.i.i.i.i.i.i, align 8, !tbaa !87, !noalias !70
  %cmp.not.i.i.i.i.i.i.i.i.i = icmp eq %"struct.parlay::sequence_internal::sequence_base<std::pair<long, long>, parlay::allocator<std::pair<long, long>>, false>::storage_impl::capacitated_buffer::header"* %113, null
  %data.i.i.i.i.i.i.i53.i.i.i = getelementptr inbounds %"struct.parlay::sequence_internal::sequence_base<std::pair<long, long>, parlay::allocator<std::pair<long, long>>, false>::storage_impl::capacitated_buffer::header", %"struct.parlay::sequence_internal::sequence_base<std::pair<long, long>, parlay::allocator<std::pair<long, long>>, false>::storage_impl::capacitated_buffer::header"* %113, i64 0, i32 1, i32 0
  %114 = bitcast [1 x i8]* %data.i.i.i.i.i.i.i53.i.i.i to %struct.timeval*
  %retval.0.i.i.i.i.i.i.i.i.i150 = select i1 %cmp.not.i.i.i.i.i.i.i.i.i, %struct.timeval* null, %struct.timeval* %114
  %115 = getelementptr inbounds %"struct.parlay::internal::delayed::block_delayed_scan_t", %"struct.parlay::internal::delayed::block_delayed_scan_t"* %s.i41.i, i64 0, i32 2, i32 0, i32 0, i32 0, i32 0, i32 1
  %116 = bitcast [6 x i8]* %115 to i48*
  %bf.load.i.i.i.i.i.i.i.i = load i48, i48* %116, align 8, !noalias !70
  %bf.cast.i.i.i.i.i.i.i.i = zext i48 %bf.load.i.i.i.i.i.i.i.i to i64
  %add.ptr.i.i.i.i.i.i = getelementptr inbounds %struct.timeval, %struct.timeval* %retval.0.i.i.i.i.i.i.i.i.i150, i64 %bf.cast.i.i.i.i.i.i.i.i
  %117 = bitcast %"struct.parlay::monoid"* %ref.tmp21.i.i.i to i8*
  call void @llvm.lifetime.start.p0i8(i64 16, i8* nonnull %117) #37, !noalias !70
  %118 = getelementptr inbounds %"struct.parlay::monoid", %"struct.parlay::monoid"* %ref.tmp21.i.i.i, i64 0, i32 0, i32 0
  %119 = getelementptr inbounds %"struct.parlay::monoid", %"struct.parlay::monoid"* %ref.tmp21.i.i.i, i64 0, i32 0, i32 1
  %120 = bitcast %"struct.parlay::slice.368"* %In.i.i.i.i to i8*
  call void @llvm.memset.p0i8.i64(i8* noundef nonnull align 8 dereferenceable(16) %117, i8 0, i64 16, i1 false), !noalias !60
  call void @llvm.lifetime.start.p0i8(i64 16, i8* nonnull %120), !noalias !70
  %121 = getelementptr inbounds %"struct.parlay::slice.368", %"struct.parlay::slice.368"* %In.i.i.i.i, i64 0, i32 0
  store %struct.timeval* %retval.0.i.i.i.i.i.i.i.i.i150, %struct.timeval** %121, align 8, !noalias !70
  %122 = getelementptr inbounds %"struct.parlay::slice.368", %"struct.parlay::slice.368"* %In.i.i.i.i, i64 0, i32 1
  store %struct.timeval* %add.ptr.i.i.i.i.i.i, %struct.timeval** %122, align 8, !noalias !70
  %123 = bitcast %"struct.parlay::slice.368"* %Out.i.i.i.i.i to i8*
  call void @llvm.lifetime.start.p0i8(i64 16, i8* nonnull %123), !noalias !70
  %124 = bitcast i32* %fl.addr.i.i.i.i.i to i8*
  call void @llvm.lifetime.start.p0i8(i64 4, i8* nonnull %124), !noalias !70
  call void @llvm.lifetime.start.p0i8(i64 1, i8* nonnull %out_uninitialized.addr.i.i.i.i.i), !noalias !70
  %125 = getelementptr inbounds %"struct.parlay::slice.368", %"struct.parlay::slice.368"* %Out.i.i.i.i.i, i64 0, i32 0
  store %struct.timeval* %retval.0.i.i.i.i.i.i.i.i.i150, %struct.timeval** %125, align 8, !noalias !70
  %126 = getelementptr inbounds %"struct.parlay::slice.368", %"struct.parlay::slice.368"* %Out.i.i.i.i.i, i64 0, i32 1
  store %struct.timeval* %add.ptr.i.i.i.i.i.i, %struct.timeval** %126, align 8, !noalias !70
  store i32 0, i32* %fl.addr.i.i.i.i.i, align 4, !tbaa !89, !noalias !70
  store i8 0, i8* %out_uninitialized.addr.i.i.i.i.i, align 1, !tbaa !90, !noalias !70
  %cmp.i.i.i.i.i.i = icmp eq i48 %bf.load.i.i.i.i.i.i.i.i, 0
  br i1 %cmp.i.i.i.i.i.i, label %"_ZN6parlay8internal7delayed20block_delayed_scan_tIRNS_16delayed_sequenceISt4pairIllES5_ZNS_10map_tokensIRNS_8sequenceIcNS_9allocatorIcEELb1EEERZ10wordCountsRKSA_bE3$_1Z10wordCountsSD_bE3$_2EEDaOT_OT0_OT1_EUlmE1_EELb0EZNS6_ISB_SF_SG_EEDaSI_SK_SM_EUlS5_S5_E_S5_EC2ISP_EESI_SQ_S5_.exit.i.i", label %_ZN6parlay8internal10num_blocksEmm.exit.i.i.i.i.i

_ZN6parlay8internal10num_blocksEmm.exit.i.i.i.i.i: ; preds = %invoke.cont28.i.i.i
  %sub.i.i.i55.i.i.i = add nsw i64 %bf.cast.i.i.i.i.i.i.i.i, -1
  %cmp.i.i56.i.i.i = icmp ult i64 %sub.i.i.i55.i.i.i, 2048
  br i1 %cmp.i.i56.i.i.i, label %for.body19.i.i.i.i.i.preheader, label %invoke.cont7.i.i.i.i.i

for.body19.i.i.i.i.i.preheader:                   ; preds = %_ZN6parlay8internal10num_blocksEmm.exit.i.i.i.i.i
  %xtraiter512 = and i64 %bf.cast.i.i.i.i.i.i.i.i, 1
  %127 = icmp eq i64 %sub.i.i.i55.i.i.i, 0
  br i1 %127, label %"_ZN6parlay8internal7delayed20block_delayed_scan_tIRNS_16delayed_sequenceISt4pairIllES5_ZNS_10map_tokensIRNS_8sequenceIcNS_9allocatorIcEELb1EEERZ10wordCountsRKSA_bE3$_1Z10wordCountsSD_bE3$_2EEDaOT_OT0_OT1_EUlmE1_EELb0EZNS6_ISB_SF_SG_EEDaSI_SK_SM_EUlS5_S5_E_S5_EC2ISP_EESI_SQ_S5_.exit.i.i.loopexit.unr-lcssa", label %for.body19.i.i.i.i.i.preheader.new

for.body19.i.i.i.i.i.preheader.new:               ; preds = %for.body19.i.i.i.i.i.preheader
  %unroll_iter517 = and i64 %bf.cast.i.i.i.i.i.i.i.i, 281474976710654
  br label %for.body19.i.i.i.i.i

for.body19.i.i.i.i.i:                             ; preds = %for.body19.i.i.i.i.i, %for.body19.i.i.i.i.i.preheader.new
  %i15.037.i.i.i.i.i = phi i64 [ 0, %for.body19.i.i.i.i.i.preheader.new ], [ %inc35.i.i.i.i.i.1, %for.body19.i.i.i.i.i ]
  %r.sroa.12.135.i.i.i.i.i = phi i64 [ 0, %for.body19.i.i.i.i.i.preheader.new ], [ %spec.select2.i82.i.i.i.i.i.1, %for.body19.i.i.i.i.i ]
  %r.sroa.0.133.i.i.i.i.i = phi i64 [ 0, %for.body19.i.i.i.i.i.preheader.new ], [ %add.i81.i.i.i.i.i.1, %for.body19.i.i.i.i.i ]
  %niter518 = phi i64 [ 0, %for.body19.i.i.i.i.i.preheader.new ], [ %niter518.next.1, %for.body19.i.i.i.i.i ]
  %t.sroa.0.0..sroa_idx.i.i.i.i.i = getelementptr inbounds %struct.timeval, %struct.timeval* %retval.0.i.i.i.i.i.i.i.i.i150, i64 %i15.037.i.i.i.i.i, i32 0
  %t.sroa.0.0.copyload.i.i.i.i.i = load i64, i64* %t.sroa.0.0..sroa_idx.i.i.i.i.i, align 8, !noalias !70
  %t.sroa.4.0..sroa_idx41.i.i.i.i.i = getelementptr inbounds %struct.timeval, %struct.timeval* %retval.0.i.i.i.i.i.i.i.i.i150, i64 %i15.037.i.i.i.i.i, i32 1
  %t.sroa.4.0.copyload.i.i.i.i.i = load i64, i64* %t.sroa.4.0..sroa_idx41.i.i.i.i.i, align 8, !noalias !70
  store i64 %r.sroa.0.133.i.i.i.i.i, i64* %t.sroa.0.0..sroa_idx.i.i.i.i.i, align 8, !tbaa !91, !noalias !70
  store i64 %r.sroa.12.135.i.i.i.i.i, i64* %t.sroa.4.0..sroa_idx41.i.i.i.i.i, align 8, !tbaa !93, !noalias !70
  %cmp.i80.i.i.i.i.i = icmp eq i64 %t.sroa.0.0.copyload.i.i.i.i.i, 0
  %add.i81.i.i.i.i.i = add nsw i64 %t.sroa.0.0.copyload.i.i.i.i.i, %r.sroa.0.133.i.i.i.i.i
  %spec.select2.i82.i.i.i.i.i = select i1 %cmp.i80.i.i.i.i.i, i64 %r.sroa.12.135.i.i.i.i.i, i64 %t.sroa.4.0.copyload.i.i.i.i.i
  %inc35.i.i.i.i.i = or i64 %i15.037.i.i.i.i.i, 1
  %t.sroa.0.0..sroa_idx.i.i.i.i.i.1 = getelementptr inbounds %struct.timeval, %struct.timeval* %retval.0.i.i.i.i.i.i.i.i.i150, i64 %inc35.i.i.i.i.i, i32 0
  %t.sroa.0.0.copyload.i.i.i.i.i.1 = load i64, i64* %t.sroa.0.0..sroa_idx.i.i.i.i.i.1, align 8, !noalias !70
  %t.sroa.4.0..sroa_idx41.i.i.i.i.i.1 = getelementptr inbounds %struct.timeval, %struct.timeval* %retval.0.i.i.i.i.i.i.i.i.i150, i64 %inc35.i.i.i.i.i, i32 1
  %t.sroa.4.0.copyload.i.i.i.i.i.1 = load i64, i64* %t.sroa.4.0..sroa_idx41.i.i.i.i.i.1, align 8, !noalias !70
  store i64 %add.i81.i.i.i.i.i, i64* %t.sroa.0.0..sroa_idx.i.i.i.i.i.1, align 8, !tbaa !91, !noalias !70
  store i64 %spec.select2.i82.i.i.i.i.i, i64* %t.sroa.4.0..sroa_idx41.i.i.i.i.i.1, align 8, !tbaa !93, !noalias !70
  %cmp.i80.i.i.i.i.i.1 = icmp eq i64 %t.sroa.0.0.copyload.i.i.i.i.i.1, 0
  %add.i81.i.i.i.i.i.1 = add nsw i64 %t.sroa.0.0.copyload.i.i.i.i.i.1, %add.i81.i.i.i.i.i
  %spec.select2.i82.i.i.i.i.i.1 = select i1 %cmp.i80.i.i.i.i.i.1, i64 %spec.select2.i82.i.i.i.i.i, i64 %t.sroa.4.0.copyload.i.i.i.i.i.1
  %inc35.i.i.i.i.i.1 = add nuw nsw i64 %i15.037.i.i.i.i.i, 2
  %niter518.next.1 = add i64 %niter518, 2
  %niter518.ncmp.1 = icmp eq i64 %niter518.next.1, %unroll_iter517
  br i1 %niter518.ncmp.1, label %"_ZN6parlay8internal7delayed20block_delayed_scan_tIRNS_16delayed_sequenceISt4pairIllES5_ZNS_10map_tokensIRNS_8sequenceIcNS_9allocatorIcEELb1EEERZ10wordCountsRKSA_bE3$_1Z10wordCountsSD_bE3$_2EEDaOT_OT0_OT1_EUlmE1_EELb0EZNS6_ISB_SF_SG_EEDaSI_SK_SM_EUlS5_S5_E_S5_EC2ISP_EESI_SQ_S5_.exit.i.i.loopexit.unr-lcssa", label %for.body19.i.i.i.i.i, !llvm.loop !94

invoke.cont7.i.i.i.i.i:                           ; preds = %_ZN6parlay8internal10num_blocksEmm.exit.i.i.i.i.i
  %div.i.i.i.i.i.i = lshr i64 %sub.i.i.i55.i.i.i, 10
  %add.i.i.i.i.i.i151 = add nuw nsw i64 %div.i.i.i.i.i.i, 1
  %128 = bitcast %"class.parlay::sequence.1"* %sums.i.i.i.i.i to i8*
  call void @llvm.lifetime.start.p0i8(i64 16, i8* nonnull %128) #37, !noalias !70
  invoke void @_ZN6parlay8sequenceISt4pairIllENS_9allocatorIS2_EELb0EE13uninitializedEm(%"class.parlay::sequence.1"* nonnull sret(%"class.parlay::sequence.1") align 8 %sums.i.i.i.i.i, i64 noundef %add.i.i.i.i.i.i151)
          to label %.noexc.i.i.i unwind label %lpad24.i.i.i, !noalias !70

.noexc.i.i.i:                                     ; preds = %invoke.cont7.i.i.i.i.i
  %129 = bitcast %class.anon.370* %ref.tmp.i.i.i.i.i to i8*
  call void @llvm.lifetime.start.p0i8(i64 24, i8* nonnull %129) #37, !noalias !70
  %130 = getelementptr inbounds %class.anon.370, %class.anon.370* %ref.tmp.i.i.i.i.i, i64 0, i32 0
  store %"class.parlay::sequence.1"* %sums.i.i.i.i.i, %"class.parlay::sequence.1"** %130, align 8, !tbaa !52, !noalias !70
  %131 = getelementptr inbounds %class.anon.370, %class.anon.370* %ref.tmp.i.i.i.i.i, i64 0, i32 1
  store %"struct.parlay::slice.368"* %In.i.i.i.i, %"struct.parlay::slice.368"** %131, align 8, !tbaa !52, !noalias !70
  %132 = getelementptr inbounds %class.anon.370, %class.anon.370* %ref.tmp.i.i.i.i.i, i64 0, i32 2
  store %"struct.parlay::monoid"* %ref.tmp21.i.i.i, %"struct.parlay::monoid"** %132, align 8, !tbaa !52, !noalias !70
  %133 = bitcast i64* %n.addr.i.i.i.i.i.i to i8*
  call void @llvm.lifetime.start.p0i8(i64 8, i8* nonnull %133), !noalias !70
  %134 = bitcast i64* %block_size.addr.i.i.i.i.i.i to i8*
  call void @llvm.lifetime.start.p0i8(i64 8, i8* nonnull %134), !noalias !70
  store i64 %bf.cast.i.i.i.i.i.i.i.i, i64* %n.addr.i.i.i.i.i.i, align 8, !tbaa !3, !noalias !70
  store i64 1024, i64* %block_size.addr.i.i.i.i.i.i, align 8, !tbaa !3, !noalias !70
  call fastcc void @"_ZN6parlay12parallel_forIZNS_8internal10sliced_forIZNS1_5scan_INS_5sliceIPSt4pairIllES7_EES8_NS_6monoidIZNS_10map_tokensIRNS_8sequenceIcNS_9allocatorIcEELb1EEERZ10wordCountsRKSE_bE3$_1Z10wordCountsSH_bE3$_2EEDaOT_OT0_OT1_EUlS6_S6_E_S6_vEEEEDaRKSL_SN_SQ_jbEUlmmmE_EEvmmSU_jEUlmE_EEvmmSL_lb"(i64 noundef 0, i64 noundef %add.i.i.i.i.i.i151, i64* nonnull %block_size.addr.i.i.i.i.i.i, i64* nonnull %n.addr.i.i.i.i.i.i, %class.anon.370* nonnull %ref.tmp.i.i.i.i.i) #37, !noalias !70
  call void @llvm.lifetime.end.p0i8(i64 8, i8* nonnull %133), !noalias !70
  call void @llvm.lifetime.end.p0i8(i64 8, i8* nonnull %134), !noalias !70
  call void @llvm.lifetime.end.p0i8(i64 24, i8* nonnull %129) #37, !noalias !70
  %buffer.i.i.i.i.i.i.i.i.i.i.i152 = bitcast %"class.parlay::sequence.1"* %sums.i.i.i.i.i to %"struct.parlay::sequence_internal::sequence_base<std::pair<long, long>, parlay::allocator<std::pair<long, long>>, false>::storage_impl::capacitated_buffer::header"**
  %135 = load %"struct.parlay::sequence_internal::sequence_base<std::pair<long, long>, parlay::allocator<std::pair<long, long>>, false>::storage_impl::capacitated_buffer::header"*, %"struct.parlay::sequence_internal::sequence_base<std::pair<long, long>, parlay::allocator<std::pair<long, long>>, false>::storage_impl::capacitated_buffer::header"** %buffer.i.i.i.i.i.i.i.i.i.i.i152, align 8, !tbaa !87, !noalias !70
  %cmp.not.i.i.i.i.i.i.i.i57.i.i.i = icmp eq %"struct.parlay::sequence_internal::sequence_base<std::pair<long, long>, parlay::allocator<std::pair<long, long>>, false>::storage_impl::capacitated_buffer::header"* %135, null
  %data.i.i.i.i.i.i.i.i.i.i.i.i = getelementptr inbounds %"struct.parlay::sequence_internal::sequence_base<std::pair<long, long>, parlay::allocator<std::pair<long, long>>, false>::storage_impl::capacitated_buffer::header", %"struct.parlay::sequence_internal::sequence_base<std::pair<long, long>, parlay::allocator<std::pair<long, long>>, false>::storage_impl::capacitated_buffer::header"* %135, i64 0, i32 1, i32 0
  %136 = bitcast [1 x i8]* %data.i.i.i.i.i.i.i.i.i.i.i.i to %struct.timeval*
  %retval.0.i.i.i.i.i.i.i.i.i.i.i = select i1 %cmp.not.i.i.i.i.i.i.i.i57.i.i.i, %struct.timeval* null, %struct.timeval* %136
  %137 = getelementptr inbounds %"class.parlay::sequence.1", %"class.parlay::sequence.1"* %sums.i.i.i.i.i, i64 0, i32 0, i32 0, i32 0, i32 0, i32 1
  %138 = bitcast [6 x i8]* %137 to i48*
  %bf.load.i.i.i.i.i.i.i.i.i.i153 = load i48, i48* %138, align 8, !noalias !70
  %bf.cast.i.i.i.i.i.i.i.i.i.i = zext i48 %bf.load.i.i.i.i.i.i.i.i.i.i153 to i64
  %agg.tmp9.sroa.0.0.copyload.i.i.i.i.i = load i64, i64* %118, align 8, !noalias !70
  %agg.tmp9.sroa.2.0.copyload.i.i.i.i.i = load i64, i64* %119, align 8, !noalias !70
  %cmp178.not.i.i.i.i.i.i = icmp eq i48 %bf.load.i.i.i.i.i.i.i.i.i.i153, 0
  br i1 %cmp178.not.i.i.i.i.i.i, label %invoke.cont15.i.i.i.i.i, label %for.body19.i.i.i.i.i.i.preheader

for.body19.i.i.i.i.i.i.preheader:                 ; preds = %.noexc.i.i.i
  %xtraiter507 = and i64 %bf.cast.i.i.i.i.i.i.i.i.i.i, 1
  %139 = icmp eq i48 %bf.load.i.i.i.i.i.i.i.i.i.i153, 1
  br i1 %139, label %invoke.cont15.i.i.i.i.i.loopexit.unr-lcssa, label %for.body19.i.i.i.i.i.i.preheader.new

for.body19.i.i.i.i.i.i.preheader.new:             ; preds = %for.body19.i.i.i.i.i.i.preheader
  %unroll_iter = and i64 %bf.cast.i.i.i.i.i.i.i.i.i.i, 281474976710654
  br label %for.body19.i.i.i.i.i.i

for.body19.i.i.i.i.i.i:                           ; preds = %for.body19.i.i.i.i.i.i, %for.body19.i.i.i.i.i.i.preheader.new
  %i15.011.i.i.i.i.i.i = phi i64 [ 0, %for.body19.i.i.i.i.i.i.preheader.new ], [ %inc35.i.i.i.i.i.i.1, %for.body19.i.i.i.i.i.i ]
  %r.sroa.7.010.i.i.i.i.i.i = phi i64 [ %agg.tmp9.sroa.2.0.copyload.i.i.i.i.i, %for.body19.i.i.i.i.i.i.preheader.new ], [ %spec.select2.i.i.i.i.i.i.i.1, %for.body19.i.i.i.i.i.i ]
  %r.sroa.0.09.i.i.i.i.i.i = phi i64 [ %agg.tmp9.sroa.0.0.copyload.i.i.i.i.i, %for.body19.i.i.i.i.i.i.preheader.new ], [ %add.i.i9.i.i.i.i.i.1, %for.body19.i.i.i.i.i.i ]
  %niter511 = phi i64 [ 0, %for.body19.i.i.i.i.i.i.preheader.new ], [ %niter511.next.1, %for.body19.i.i.i.i.i.i ]
  %t.sroa.0.0..sroa_idx.i.i.i.i.i.i = getelementptr inbounds %struct.timeval, %struct.timeval* %retval.0.i.i.i.i.i.i.i.i.i.i.i, i64 %i15.011.i.i.i.i.i.i, i32 0
  %t.sroa.0.0.copyload.i.i.i.i.i.i = load i64, i64* %t.sroa.0.0..sroa_idx.i.i.i.i.i.i, align 8, !noalias !70
  %t.sroa.4.0..sroa_idx41.i.i.i.i.i.i = getelementptr inbounds %struct.timeval, %struct.timeval* %retval.0.i.i.i.i.i.i.i.i.i.i.i, i64 %i15.011.i.i.i.i.i.i, i32 1
  %t.sroa.4.0.copyload.i.i.i.i.i.i = load i64, i64* %t.sroa.4.0..sroa_idx41.i.i.i.i.i.i, align 8, !noalias !70
  store i64 %r.sroa.0.09.i.i.i.i.i.i, i64* %t.sroa.0.0..sroa_idx.i.i.i.i.i.i, align 8, !tbaa !91, !noalias !70
  store i64 %r.sroa.7.010.i.i.i.i.i.i, i64* %t.sroa.4.0..sroa_idx41.i.i.i.i.i.i, align 8, !tbaa !93, !noalias !70
  %cmp.i.i8.i.i.i.i.i = icmp eq i64 %t.sroa.0.0.copyload.i.i.i.i.i.i, 0
  %add.i.i9.i.i.i.i.i = add nsw i64 %t.sroa.0.0.copyload.i.i.i.i.i.i, %r.sroa.0.09.i.i.i.i.i.i
  %spec.select2.i.i.i.i.i.i.i = select i1 %cmp.i.i8.i.i.i.i.i, i64 %r.sroa.7.010.i.i.i.i.i.i, i64 %t.sroa.4.0.copyload.i.i.i.i.i.i
  %inc35.i.i.i.i.i.i = or i64 %i15.011.i.i.i.i.i.i, 1
  %t.sroa.0.0..sroa_idx.i.i.i.i.i.i.1 = getelementptr inbounds %struct.timeval, %struct.timeval* %retval.0.i.i.i.i.i.i.i.i.i.i.i, i64 %inc35.i.i.i.i.i.i, i32 0
  %t.sroa.0.0.copyload.i.i.i.i.i.i.1 = load i64, i64* %t.sroa.0.0..sroa_idx.i.i.i.i.i.i.1, align 8, !noalias !70
  %t.sroa.4.0..sroa_idx41.i.i.i.i.i.i.1 = getelementptr inbounds %struct.timeval, %struct.timeval* %retval.0.i.i.i.i.i.i.i.i.i.i.i, i64 %inc35.i.i.i.i.i.i, i32 1
  %t.sroa.4.0.copyload.i.i.i.i.i.i.1 = load i64, i64* %t.sroa.4.0..sroa_idx41.i.i.i.i.i.i.1, align 8, !noalias !70
  store i64 %add.i.i9.i.i.i.i.i, i64* %t.sroa.0.0..sroa_idx.i.i.i.i.i.i.1, align 8, !tbaa !91, !noalias !70
  store i64 %spec.select2.i.i.i.i.i.i.i, i64* %t.sroa.4.0..sroa_idx41.i.i.i.i.i.i.1, align 8, !tbaa !93, !noalias !70
  %cmp.i.i8.i.i.i.i.i.1 = icmp eq i64 %t.sroa.0.0.copyload.i.i.i.i.i.i.1, 0
  %add.i.i9.i.i.i.i.i.1 = add nsw i64 %t.sroa.0.0.copyload.i.i.i.i.i.i.1, %add.i.i9.i.i.i.i.i
  %spec.select2.i.i.i.i.i.i.i.1 = select i1 %cmp.i.i8.i.i.i.i.i.1, i64 %spec.select2.i.i.i.i.i.i.i, i64 %t.sroa.4.0.copyload.i.i.i.i.i.i.1
  %inc35.i.i.i.i.i.i.1 = add nuw nsw i64 %i15.011.i.i.i.i.i.i, 2
  %niter511.next.1 = add i64 %niter511, 2
  %niter511.ncmp.1 = icmp eq i64 %niter511.next.1, %unroll_iter
  br i1 %niter511.ncmp.1, label %invoke.cont15.i.i.i.i.i.loopexit.unr-lcssa, label %for.body19.i.i.i.i.i.i, !llvm.loop !95

invoke.cont15.i.i.i.i.i.loopexit.unr-lcssa:       ; preds = %for.body19.i.i.i.i.i.i, %for.body19.i.i.i.i.i.i.preheader
  %add.i.i9.i.i.i.i.i.lcssa.ph = phi i64 [ undef, %for.body19.i.i.i.i.i.i.preheader ], [ %add.i.i9.i.i.i.i.i.1, %for.body19.i.i.i.i.i.i ]
  %spec.select2.i.i.i.i.i.i.i.lcssa.ph = phi i64 [ undef, %for.body19.i.i.i.i.i.i.preheader ], [ %spec.select2.i.i.i.i.i.i.i.1, %for.body19.i.i.i.i.i.i ]
  %i15.011.i.i.i.i.i.i.unr = phi i64 [ 0, %for.body19.i.i.i.i.i.i.preheader ], [ %inc35.i.i.i.i.i.i.1, %for.body19.i.i.i.i.i.i ]
  %r.sroa.7.010.i.i.i.i.i.i.unr = phi i64 [ %agg.tmp9.sroa.2.0.copyload.i.i.i.i.i, %for.body19.i.i.i.i.i.i.preheader ], [ %spec.select2.i.i.i.i.i.i.i.1, %for.body19.i.i.i.i.i.i ]
  %r.sroa.0.09.i.i.i.i.i.i.unr = phi i64 [ %agg.tmp9.sroa.0.0.copyload.i.i.i.i.i, %for.body19.i.i.i.i.i.i.preheader ], [ %add.i.i9.i.i.i.i.i.1, %for.body19.i.i.i.i.i.i ]
  %lcmp.mod.not = icmp eq i64 %xtraiter507, 0
  br i1 %lcmp.mod.not, label %invoke.cont15.i.i.i.i.i, label %for.body19.i.i.i.i.i.i.epil

for.body19.i.i.i.i.i.i.epil:                      ; preds = %invoke.cont15.i.i.i.i.i.loopexit.unr-lcssa
  %t.sroa.0.0..sroa_idx.i.i.i.i.i.i.epil = getelementptr inbounds %struct.timeval, %struct.timeval* %retval.0.i.i.i.i.i.i.i.i.i.i.i, i64 %i15.011.i.i.i.i.i.i.unr, i32 0
  %t.sroa.0.0.copyload.i.i.i.i.i.i.epil = load i64, i64* %t.sroa.0.0..sroa_idx.i.i.i.i.i.i.epil, align 8, !noalias !70
  %t.sroa.4.0..sroa_idx41.i.i.i.i.i.i.epil = getelementptr inbounds %struct.timeval, %struct.timeval* %retval.0.i.i.i.i.i.i.i.i.i.i.i, i64 %i15.011.i.i.i.i.i.i.unr, i32 1
  %t.sroa.4.0.copyload.i.i.i.i.i.i.epil = load i64, i64* %t.sroa.4.0..sroa_idx41.i.i.i.i.i.i.epil, align 8, !noalias !70
  store i64 %r.sroa.0.09.i.i.i.i.i.i.unr, i64* %t.sroa.0.0..sroa_idx.i.i.i.i.i.i.epil, align 8, !tbaa !91, !noalias !70
  store i64 %r.sroa.7.010.i.i.i.i.i.i.unr, i64* %t.sroa.4.0..sroa_idx41.i.i.i.i.i.i.epil, align 8, !tbaa !93, !noalias !70
  %cmp.i.i8.i.i.i.i.i.epil = icmp eq i64 %t.sroa.0.0.copyload.i.i.i.i.i.i.epil, 0
  %add.i.i9.i.i.i.i.i.epil = add nsw i64 %t.sroa.0.0.copyload.i.i.i.i.i.i.epil, %r.sroa.0.09.i.i.i.i.i.i.unr
  %spec.select2.i.i.i.i.i.i.i.epil = select i1 %cmp.i.i8.i.i.i.i.i.epil, i64 %r.sroa.7.010.i.i.i.i.i.i.unr, i64 %t.sroa.4.0.copyload.i.i.i.i.i.i.epil
  br label %invoke.cont15.i.i.i.i.i

invoke.cont15.i.i.i.i.i:                          ; preds = %for.body19.i.i.i.i.i.i.epil, %invoke.cont15.i.i.i.i.i.loopexit.unr-lcssa, %.noexc.i.i.i
  %r.sroa.0.0.lcssa.i.i.i.i.i.i = phi i64 [ %agg.tmp9.sroa.0.0.copyload.i.i.i.i.i, %.noexc.i.i.i ], [ %add.i.i9.i.i.i.i.i.lcssa.ph, %invoke.cont15.i.i.i.i.i.loopexit.unr-lcssa ], [ %add.i.i9.i.i.i.i.i.epil, %for.body19.i.i.i.i.i.i.epil ]
  %r.sroa.7.0.lcssa.i.i.i.i.i.i = phi i64 [ %agg.tmp9.sroa.2.0.copyload.i.i.i.i.i, %.noexc.i.i.i ], [ %spec.select2.i.i.i.i.i.i.i.lcssa.ph, %invoke.cont15.i.i.i.i.i.loopexit.unr-lcssa ], [ %spec.select2.i.i.i.i.i.i.i.epil, %for.body19.i.i.i.i.i.i.epil ]
  %140 = bitcast %class.anon.371* %ref.tmp13.i.i.i.i.i to i8*
  call void @llvm.lifetime.start.p0i8(i64 48, i8* nonnull %140) #37, !noalias !70
  %141 = getelementptr inbounds %class.anon.371, %class.anon.371* %ref.tmp13.i.i.i.i.i, i64 0, i32 0
  store %"struct.parlay::slice.368"* %Out.i.i.i.i.i, %"struct.parlay::slice.368"** %141, align 8, !tbaa !52, !noalias !70
  %142 = getelementptr inbounds %class.anon.371, %class.anon.371* %ref.tmp13.i.i.i.i.i, i64 0, i32 1
  store %"struct.parlay::slice.368"* %In.i.i.i.i, %"struct.parlay::slice.368"** %142, align 8, !tbaa !52, !noalias !70
  %143 = getelementptr inbounds %class.anon.371, %class.anon.371* %ref.tmp13.i.i.i.i.i, i64 0, i32 2
  store %"struct.parlay::monoid"* %ref.tmp21.i.i.i, %"struct.parlay::monoid"** %143, align 8, !tbaa !52, !noalias !70
  %144 = getelementptr inbounds %class.anon.371, %class.anon.371* %ref.tmp13.i.i.i.i.i, i64 0, i32 3
  store %"class.parlay::sequence.1"* %sums.i.i.i.i.i, %"class.parlay::sequence.1"** %144, align 8, !tbaa !52, !noalias !70
  %145 = getelementptr inbounds %class.anon.371, %class.anon.371* %ref.tmp13.i.i.i.i.i, i64 0, i32 4
  store i32* %fl.addr.i.i.i.i.i, i32** %145, align 8, !tbaa !52, !noalias !70
  %146 = getelementptr inbounds %class.anon.371, %class.anon.371* %ref.tmp13.i.i.i.i.i, i64 0, i32 5
  store i8* %out_uninitialized.addr.i.i.i.i.i, i8** %146, align 8, !tbaa !52, !noalias !70
  %147 = bitcast i64* %n.addr.i10.i.i.i.i.i to i8*
  call void @llvm.lifetime.start.p0i8(i64 8, i8* nonnull %147), !noalias !70
  %148 = bitcast i64* %block_size.addr.i11.i.i.i.i.i to i8*
  call void @llvm.lifetime.start.p0i8(i64 8, i8* nonnull %148), !noalias !70
  store i64 %bf.cast.i.i.i.i.i.i.i.i, i64* %n.addr.i10.i.i.i.i.i, align 8, !tbaa !3, !noalias !70
  store i64 1024, i64* %block_size.addr.i11.i.i.i.i.i, align 8, !tbaa !3, !noalias !70
  call fastcc void @"_ZN6parlay12parallel_forIZNS_8internal10sliced_forIZNS1_5scan_INS_5sliceIPSt4pairIllES7_EES8_NS_6monoidIZNS_10map_tokensIRNS_8sequenceIcNS_9allocatorIcEELb1EEERZ10wordCountsRKSE_bE3$_1Z10wordCountsSH_bE3$_2EEDaOT_OT0_OT1_EUlS6_S6_E_S6_vEEEEDaRKSL_SN_SQ_jbEUlmmmE0_EEvmmSU_jEUlmE_EEvmmSL_lb"(i64 noundef 0, i64 noundef %add.i.i.i.i.i.i151, i64* nonnull %block_size.addr.i11.i.i.i.i.i, i64* nonnull %n.addr.i10.i.i.i.i.i, %class.anon.371* nonnull %ref.tmp13.i.i.i.i.i) #37, !noalias !70
  call void @llvm.lifetime.end.p0i8(i64 8, i8* nonnull %147), !noalias !70
  call void @llvm.lifetime.end.p0i8(i64 8, i8* nonnull %148), !noalias !70
  call void @llvm.lifetime.end.p0i8(i64 48, i8* nonnull %140) #37, !noalias !70
  %149 = getelementptr inbounds %"class.std::ios_base::Init", %"class.std::ios_base::Init"* %alloc.i.i.i.i.i54.i.i.i, i64 0, i32 0
  call void @llvm.lifetime.start.p0i8(i64 1, i8* nonnull %149) #37, !noalias !70
  %buffer.i.i.i.i.i58.i.i.i = bitcast %"class.parlay::sequence.1"* %sums.i.i.i.i.i to %"struct.parlay::sequence_internal::sequence_base<std::pair<long, long>, parlay::allocator<std::pair<long, long>>, false>::storage_impl::capacitated_buffer"*
  invoke void @_ZN6parlay17sequence_internal13sequence_baseISt4pairIllENS_9allocatorIS3_EELb0EE12storage_impl18capacitated_buffer11free_bufferERNS4_ISt4byteEE(%"struct.parlay::sequence_internal::sequence_base<std::pair<long, long>, parlay::allocator<std::pair<long, long>>, false>::storage_impl::capacitated_buffer"* noundef nonnull align 1 dereferenceable(8) %buffer.i.i.i.i.i58.i.i.i, %"class.std::ios_base::Init"* noundef nonnull align 1 dereferenceable(1) %alloc.i.i.i.i.i54.i.i.i)
          to label %_ZN6parlay17sequence_internal13sequence_baseISt4pairIllENS_9allocatorIS3_EELb0EED2Ev.exit.i.i60.i.i.i unwind label %lpad.i.i.i.i59.i.i.i, !noalias !70

lpad.i.i.i.i59.i.i.i:                             ; preds = %invoke.cont15.i.i.i.i.i
  %150 = landingpad { i8*, i32 }
          catch i8* null
  %151 = extractvalue { i8*, i32 } %150, 0
  call void @__clang_call_terminate(i8* %151) #40, !noalias !70
  unreachable

_ZN6parlay17sequence_internal13sequence_baseISt4pairIllENS_9allocatorIS3_EELb0EED2Ev.exit.i.i60.i.i.i: ; preds = %invoke.cont15.i.i.i.i.i
  call void @llvm.lifetime.end.p0i8(i64 1, i8* nonnull %149) #37, !noalias !70
  call void @llvm.lifetime.end.p0i8(i64 16, i8* nonnull %128) #37, !noalias !70
  br label %"_ZN6parlay8internal7delayed20block_delayed_scan_tIRNS_16delayed_sequenceISt4pairIllES5_ZNS_10map_tokensIRNS_8sequenceIcNS_9allocatorIcEELb1EEERZ10wordCountsRKSA_bE3$_1Z10wordCountsSD_bE3$_2EEDaOT_OT0_OT1_EUlmE1_EELb0EZNS6_ISB_SF_SG_EEDaSI_SK_SM_EUlS5_S5_E_S5_EC2ISP_EESI_SQ_S5_.exit.i.i"

lpad24.i.i.i:                                     ; preds = %invoke.cont7.i.i.i.i.i
  %152 = landingpad { i8*, i32 }
          cleanup
  call void @llvm.lifetime.end.p0i8(i64 16, i8* nonnull %117) #37, !noalias !70
  br label %ehcleanup43.i.i.i

ehcleanup43.i.i.i:                                ; preds = %lpad24.i.i.i, %_ZN6parlay17sequence_internal13sequence_baseISt4pairIllENS_9allocatorIS3_EELb0EED2Ev.exit.i.i.i.i.i
  %.pn48.pn.i.i.i = phi { i8*, i32 } [ %105, %_ZN6parlay17sequence_internal13sequence_baseISt4pairIllENS_9allocatorIS3_EELb0EED2Ev.exit.i.i.i.i.i ], [ %152, %lpad24.i.i.i ]
  %153 = bitcast %"class.parlay::sequence.1"* %block_sums.i.i.i to %"struct.parlay::sequence_internal::sequence_base.338"*
  call void @_ZN6parlay17sequence_internal13sequence_baseISt4pairIllENS_9allocatorIS3_EELb0EED2Ev(%"struct.parlay::sequence_internal::sequence_base.338"* noundef nonnull align 8 dereferenceable(15) %153) #37, !noalias !70
  br label %lpad26.body

"_ZN6parlay8internal7delayed20block_delayed_scan_tIRNS_16delayed_sequenceISt4pairIllES5_ZNS_10map_tokensIRNS_8sequenceIcNS_9allocatorIcEELb1EEERZ10wordCountsRKSA_bE3$_1Z10wordCountsSD_bE3$_2EEDaOT_OT0_OT1_EUlmE1_EELb0EZNS6_ISB_SF_SG_EEDaSI_SK_SM_EUlS5_S5_E_S5_EC2ISP_EESI_SQ_S5_.exit.i.i.loopexit.unr-lcssa": ; preds = %for.body19.i.i.i.i.i, %for.body19.i.i.i.i.i.preheader
  %add.i81.i.i.i.i.i.lcssa.ph = phi i64 [ undef, %for.body19.i.i.i.i.i.preheader ], [ %add.i81.i.i.i.i.i.1, %for.body19.i.i.i.i.i ]
  %spec.select2.i82.i.i.i.i.i.lcssa.ph = phi i64 [ undef, %for.body19.i.i.i.i.i.preheader ], [ %spec.select2.i82.i.i.i.i.i.1, %for.body19.i.i.i.i.i ]
  %i15.037.i.i.i.i.i.unr = phi i64 [ 0, %for.body19.i.i.i.i.i.preheader ], [ %inc35.i.i.i.i.i.1, %for.body19.i.i.i.i.i ]
  %r.sroa.12.135.i.i.i.i.i.unr = phi i64 [ 0, %for.body19.i.i.i.i.i.preheader ], [ %spec.select2.i82.i.i.i.i.i.1, %for.body19.i.i.i.i.i ]
  %r.sroa.0.133.i.i.i.i.i.unr = phi i64 [ 0, %for.body19.i.i.i.i.i.preheader ], [ %add.i81.i.i.i.i.i.1, %for.body19.i.i.i.i.i ]
  %lcmp.mod514.not = icmp eq i64 %xtraiter512, 0
  br i1 %lcmp.mod514.not, label %"_ZN6parlay8internal7delayed20block_delayed_scan_tIRNS_16delayed_sequenceISt4pairIllES5_ZNS_10map_tokensIRNS_8sequenceIcNS_9allocatorIcEELb1EEERZ10wordCountsRKSA_bE3$_1Z10wordCountsSD_bE3$_2EEDaOT_OT0_OT1_EUlmE1_EELb0EZNS6_ISB_SF_SG_EEDaSI_SK_SM_EUlS5_S5_E_S5_EC2ISP_EESI_SQ_S5_.exit.i.i", label %for.body19.i.i.i.i.i.epil

for.body19.i.i.i.i.i.epil:                        ; preds = %"_ZN6parlay8internal7delayed20block_delayed_scan_tIRNS_16delayed_sequenceISt4pairIllES5_ZNS_10map_tokensIRNS_8sequenceIcNS_9allocatorIcEELb1EEERZ10wordCountsRKSA_bE3$_1Z10wordCountsSD_bE3$_2EEDaOT_OT0_OT1_EUlmE1_EELb0EZNS6_ISB_SF_SG_EEDaSI_SK_SM_EUlS5_S5_E_S5_EC2ISP_EESI_SQ_S5_.exit.i.i.loopexit.unr-lcssa"
  %t.sroa.0.0..sroa_idx.i.i.i.i.i.epil = getelementptr inbounds %struct.timeval, %struct.timeval* %retval.0.i.i.i.i.i.i.i.i.i150, i64 %i15.037.i.i.i.i.i.unr, i32 0
  %t.sroa.0.0.copyload.i.i.i.i.i.epil = load i64, i64* %t.sroa.0.0..sroa_idx.i.i.i.i.i.epil, align 8, !noalias !70
  %t.sroa.4.0..sroa_idx41.i.i.i.i.i.epil = getelementptr inbounds %struct.timeval, %struct.timeval* %retval.0.i.i.i.i.i.i.i.i.i150, i64 %i15.037.i.i.i.i.i.unr, i32 1
  %t.sroa.4.0.copyload.i.i.i.i.i.epil = load i64, i64* %t.sroa.4.0..sroa_idx41.i.i.i.i.i.epil, align 8, !noalias !70
  store i64 %r.sroa.0.133.i.i.i.i.i.unr, i64* %t.sroa.0.0..sroa_idx.i.i.i.i.i.epil, align 8, !tbaa !91, !noalias !70
  store i64 %r.sroa.12.135.i.i.i.i.i.unr, i64* %t.sroa.4.0..sroa_idx41.i.i.i.i.i.epil, align 8, !tbaa !93, !noalias !70
  %cmp.i80.i.i.i.i.i.epil = icmp eq i64 %t.sroa.0.0.copyload.i.i.i.i.i.epil, 0
  %add.i81.i.i.i.i.i.epil = add nsw i64 %t.sroa.0.0.copyload.i.i.i.i.i.epil, %r.sroa.0.133.i.i.i.i.i.unr
  %spec.select2.i82.i.i.i.i.i.epil = select i1 %cmp.i80.i.i.i.i.i.epil, i64 %r.sroa.12.135.i.i.i.i.i.unr, i64 %t.sroa.4.0.copyload.i.i.i.i.i.epil
  br label %"_ZN6parlay8internal7delayed20block_delayed_scan_tIRNS_16delayed_sequenceISt4pairIllES5_ZNS_10map_tokensIRNS_8sequenceIcNS_9allocatorIcEELb1EEERZ10wordCountsRKSA_bE3$_1Z10wordCountsSD_bE3$_2EEDaOT_OT0_OT1_EUlmE1_EELb0EZNS6_ISB_SF_SG_EEDaSI_SK_SM_EUlS5_S5_E_S5_EC2ISP_EESI_SQ_S5_.exit.i.i"

"_ZN6parlay8internal7delayed20block_delayed_scan_tIRNS_16delayed_sequenceISt4pairIllES5_ZNS_10map_tokensIRNS_8sequenceIcNS_9allocatorIcEELb1EEERZ10wordCountsRKSA_bE3$_1Z10wordCountsSD_bE3$_2EEDaOT_OT0_OT1_EUlmE1_EELb0EZNS6_ISB_SF_SG_EEDaSI_SK_SM_EUlS5_S5_E_S5_EC2ISP_EESI_SQ_S5_.exit.i.i": ; preds = %for.body19.i.i.i.i.i.epil, %"_ZN6parlay8internal7delayed20block_delayed_scan_tIRNS_16delayed_sequenceISt4pairIllES5_ZNS_10map_tokensIRNS_8sequenceIcNS_9allocatorIcEELb1EEERZ10wordCountsRKSA_bE3$_1Z10wordCountsSD_bE3$_2EEDaOT_OT0_OT1_EUlmE1_EELb0EZNS6_ISB_SF_SG_EEDaSI_SK_SM_EUlS5_S5_E_S5_EC2ISP_EESI_SQ_S5_.exit.i.i.loopexit.unr-lcssa", %_ZN6parlay17sequence_internal13sequence_baseISt4pairIllENS_9allocatorIS3_EELb0EED2Ev.exit.i.i60.i.i.i, %invoke.cont28.i.i.i
  %154 = phi i64 [ %r.sroa.0.0.lcssa.i.i.i.i.i.i, %_ZN6parlay17sequence_internal13sequence_baseISt4pairIllENS_9allocatorIS3_EELb0EED2Ev.exit.i.i60.i.i.i ], [ 0, %invoke.cont28.i.i.i ], [ %add.i81.i.i.i.i.i.lcssa.ph, %"_ZN6parlay8internal7delayed20block_delayed_scan_tIRNS_16delayed_sequenceISt4pairIllES5_ZNS_10map_tokensIRNS_8sequenceIcNS_9allocatorIcEELb1EEERZ10wordCountsRKSA_bE3$_1Z10wordCountsSD_bE3$_2EEDaOT_OT0_OT1_EUlmE1_EELb0EZNS6_ISB_SF_SG_EEDaSI_SK_SM_EUlS5_S5_E_S5_EC2ISP_EESI_SQ_S5_.exit.i.i.loopexit.unr-lcssa" ], [ %add.i81.i.i.i.i.i.epil, %for.body19.i.i.i.i.i.epil ]
  %r.sroa.12.2.i.pn.i.i.i.i = phi i64 [ %r.sroa.7.0.lcssa.i.i.i.i.i.i, %_ZN6parlay17sequence_internal13sequence_baseISt4pairIllENS_9allocatorIS3_EELb0EED2Ev.exit.i.i60.i.i.i ], [ 0, %invoke.cont28.i.i.i ], [ %spec.select2.i82.i.i.i.i.i.lcssa.ph, %"_ZN6parlay8internal7delayed20block_delayed_scan_tIRNS_16delayed_sequenceISt4pairIllES5_ZNS_10map_tokensIRNS_8sequenceIcNS_9allocatorIcEELb1EEERZ10wordCountsRKSA_bE3$_1Z10wordCountsSD_bE3$_2EEDaOT_OT0_OT1_EUlmE1_EELb0EZNS6_ISB_SF_SG_EEDaSI_SK_SM_EUlS5_S5_E_S5_EC2ISP_EESI_SQ_S5_.exit.i.i.loopexit.unr-lcssa" ], [ %spec.select2.i82.i.i.i.i.i.epil, %for.body19.i.i.i.i.i.epil ]
  call void @llvm.lifetime.end.p0i8(i64 16, i8* nonnull %123), !noalias !70
  call void @llvm.lifetime.end.p0i8(i64 4, i8* nonnull %124), !noalias !70
  call void @llvm.lifetime.end.p0i8(i64 1, i8* nonnull %out_uninitialized.addr.i.i.i.i.i), !noalias !70
  call void @llvm.lifetime.end.p0i8(i64 16, i8* nonnull %120), !noalias !70
  store i64 %154, i64* %identity.sroa.0.0..sroa_idx.i.i.i, align 8, !tbaa !91, !noalias !70
  store i64 %r.sroa.12.2.i.pn.i.i.i.i, i64* %identity.sroa.4.0..sroa_idx74.i.i.i, align 8, !tbaa !93, !noalias !70
  call void @llvm.lifetime.end.p0i8(i64 16, i8* nonnull %117) #37, !noalias !70
  call void @llvm.lifetime.end.p0i8(i64 16, i8* nonnull %81), !noalias !70
  call void @llvm.experimental.noalias.scope.decl(metadata !96)
  %155 = bitcast %"struct.parlay::internal::delayed::block_delayed_scan_t"* %s.i41.i to i64*
  %156 = bitcast %"struct.std::pair.331"* %0 to i64*
  %157 = load i64, i64* %155, align 8, !noalias !99
  store i64 %157, i64* %156, align 8, !alias.scope !100, !noalias !60
  %total.i.i.i.i.i = getelementptr inbounds %"struct.std::pair.331", %"struct.std::pair.331"* %0, i64 0, i32 0, i32 1
  %total2.i.i.i.i.i = getelementptr inbounds %"struct.parlay::internal::delayed::block_delayed_scan_t", %"struct.parlay::internal::delayed::block_delayed_scan_t"* %s.i41.i, i64 0, i32 1
  %158 = bitcast %struct.timeval* %total.i.i.i.i.i to i8*
  %159 = bitcast %struct.timeval* %total2.i.i.i.i.i to i8*
  call void @llvm.memcpy.p0i8.p0i8.i64(i8* noundef nonnull align 8 dereferenceable(16) %158, i8* noundef nonnull align 8 dereferenceable(16) %159, i64 16, i1 false) #37, !noalias !60
  %160 = inttoptr i64 %157 to %"class.parlay::delayed_sequence"*
  %call.i.i.i.i.i.i.i10.i.i = invoke noundef nonnull align 8 dereferenceable(80) %"struct.parlay::internal::pool_allocator"* @_ZN6parlay8internal21get_default_allocatorEv()
          to label %invoke.cont6.i.i unwind label %terminate.lpad.i.i.i.i.i.i.i11.i.i, !noalias !99

terminate.lpad.i.i.i.i.i.i.i11.i.i:               ; preds = %"_ZN6parlay8internal7delayed20block_delayed_scan_tIRNS_16delayed_sequenceISt4pairIllES5_ZNS_10map_tokensIRNS_8sequenceIcNS_9allocatorIcEELb1EEERZ10wordCountsRKSA_bE3$_1Z10wordCountsSD_bE3$_2EEDaOT_OT0_OT1_EUlmE1_EELb0EZNS6_ISB_SF_SG_EEDaSI_SK_SM_EUlS5_S5_E_S5_EC2ISP_EESI_SQ_S5_.exit.i.i"
  %161 = landingpad { i8*, i32 }
          catch i8* null
  %162 = extractvalue { i8*, i32 } %161, 0
  call void @__clang_call_terminate(i8* %162) #40, !noalias !99
  unreachable

invoke.cont6.i.i:                                 ; preds = %"_ZN6parlay8internal7delayed20block_delayed_scan_tIRNS_16delayed_sequenceISt4pairIllES5_ZNS_10map_tokensIRNS_8sequenceIcNS_9allocatorIcEELb1EEERZ10wordCountsRKSA_bE3$_1Z10wordCountsSD_bE3$_2EEDaOT_OT0_OT1_EUlmE1_EELb0EZNS6_ISB_SF_SG_EEDaSI_SK_SM_EUlS5_S5_E_S5_EC2ISP_EESI_SQ_S5_.exit.i.i"
  %block_sums.i.i.i.i.i = getelementptr inbounds %"struct.std::pair.331", %"struct.std::pair.331"* %0, i64 0, i32 0, i32 2
  %163 = bitcast %"class.parlay::sequence.1"* %block_sums.i.i.i.i.i to i8*
  call void @llvm.memcpy.p0i8.p0i8.i64(i8* noundef nonnull align 8 dereferenceable(15) %163, i8* noundef nonnull align 8 dereferenceable(15) %85, i64 15, i1 false) #37, !noalias !60
  call void @llvm.memset.p0i8.i64(i8* noundef nonnull align 8 dereferenceable(15) %85, i8 0, i64 15, i1 false) #37, !noalias !99
  %164 = getelementptr inbounds %"struct.std::pair.331", %"struct.std::pair.331"* %0, i64 0, i32 0, i32 3, i32 0, i32 0
  %165 = getelementptr inbounds %"struct.parlay::internal::delayed::block_delayed_scan_t", %"struct.parlay::internal::delayed::block_delayed_scan_t"* %s.i41.i, i64 0, i32 3, i32 0, i32 0
  %166 = load i8, i8* %165, align 8, !noalias !99
  store i8 %166, i8* %164, align 8, !alias.scope !100, !noalias !60
  %ref.tmp.sroa.0.0..sroa_idx.i.i = getelementptr inbounds %"struct.std::pair.331", %"struct.std::pair.331"* %0, i64 0, i32 1, i32 0
  store i64 %154, i64* %ref.tmp.sroa.0.0..sroa_idx.i.i, align 8, !alias.scope !69, !noalias !60
  %ref.tmp.sroa.5.0..sroa_idx20.i.i = getelementptr inbounds %"struct.std::pair.331", %"struct.std::pair.331"* %0, i64 0, i32 1, i32 1
  store i64 %r.sroa.12.2.i.pn.i.i.i.i, i64* %ref.tmp.sroa.5.0..sroa_idx20.i.i, align 8, !alias.scope !69, !noalias !60
  %167 = getelementptr inbounds %"class.std::ios_base::Init", %"class.std::ios_base::Init"* %alloc.i.i.i.i12.i.i, i64 0, i32 0
  call void @llvm.lifetime.start.p0i8(i64 1, i8* nonnull %167) #37, !noalias !70
  %buffer.i.i.i.i14.i.i = bitcast %"class.parlay::sequence.1"* %block_sums.i.i.i to %"struct.parlay::sequence_internal::sequence_base<std::pair<long, long>, parlay::allocator<std::pair<long, long>>, false>::storage_impl::capacitated_buffer"*
  invoke void @_ZN6parlay17sequence_internal13sequence_baseISt4pairIllENS_9allocatorIS3_EELb0EE12storage_impl18capacitated_buffer11free_bufferERNS4_ISt4byteEE(%"struct.parlay::sequence_internal::sequence_base<std::pair<long, long>, parlay::allocator<std::pair<long, long>>, false>::storage_impl::capacitated_buffer"* noundef nonnull align 1 dereferenceable(8) %buffer.i.i.i.i14.i.i, %"class.std::ios_base::Init"* noundef nonnull align 1 dereferenceable(1) %alloc.i.i.i.i12.i.i)
          to label %invoke.cont.i unwind label %lpad.i.i.i15.i.i, !noalias !70

lpad.i.i.i15.i.i:                                 ; preds = %invoke.cont6.i.i
  %168 = landingpad { i8*, i32 }
          catch i8* null
  %169 = extractvalue { i8*, i32 } %168, 0
  call void @__clang_call_terminate(i8* %169) #40, !noalias !70
  unreachable

invoke.cont.i:                                    ; preds = %invoke.cont6.i.i
  call void @llvm.lifetime.end.p0i8(i64 1, i8* nonnull %167) #37, !noalias !70
  call void @llvm.lifetime.end.p0i8(i64 48, i8* nonnull %80) #37, !noalias !70
  %first.i.i42.i = getelementptr inbounds %"struct.std::pair.331", %"struct.std::pair.331"* %0, i64 0, i32 0
  %170 = bitcast %"struct.parlay::internal::delayed::block_delayed_zip_t"* %z.i to i8*
  call void @llvm.lifetime.start.p0i8(i64 48, i8* nonnull %170) #37, !noalias !60
  %171 = load i64, i64* %n.i, align 8, !tbaa !3, !noalias !60
  %add8.i = add i64 %171, 1
  call void @llvm.experimental.noalias.scope.decl(metadata !101)
  %vs.idx.val.idx.i.i.i = getelementptr %"class.parlay::delayed_sequence", %"class.parlay::delayed_sequence"* %160, i64 0, i32 0
  %vs.idx.val.idx.val.i.i.i = load i64, i64* %vs.idx.val.idx.i.i.i, align 8, !tbaa !61, !noalias !104
  %vs.idx.val.idx1.i.i.i = getelementptr %"class.parlay::delayed_sequence", %"class.parlay::delayed_sequence"* %160, i64 0, i32 1
  %vs.idx.val.idx1.val.i.i.i = load i64, i64* %vs.idx.val.idx1.i.i.i, align 8, !tbaa !68, !noalias !104
  %cmp.not.i.i.i.i.i43.i = icmp ult i64 %vs.idx.val.idx1.val.i.i.i, %vs.idx.val.idx.val.i.i.i
  br i1 %cmp.not.i.i.i.i.i43.i, label %cond.false.i.i.i.i.i44.i, label %_ZN6parlay8internal9size_impl4sizeIRNS_16delayed_sequenceImmZNS_4iotaImEEDaT_EUlmE_EEEEDaOS5_.exit.i.i.i

cond.false.i.i.i.i.i44.i:                         ; preds = %invoke.cont.i
  call void @__assert_fail(i8* noundef getelementptr inbounds ([14 x i8], [14 x i8]* @.str.30, i64 0, i64 0), i8* noundef getelementptr inbounds ([40 x i8], [40 x i8]* @.str.31, i64 0, i64 0), i32 noundef 301, i8* noundef getelementptr inbounds ([237 x i8], [237 x i8]* @"__PRETTY_FUNCTION__._ZNK6parlay16delayed_sequenceISt4pairIllES2_ZNS_10map_tokensIRNS_8sequenceIcNS_9allocatorIcEELb1EEERZ10wordCountsRKS7_bE3$_1Z10wordCountsSA_bE3$_2EEDaOT_OT0_OT1_EUlmE1_E4sizeEv", i64 0, i64 0)) #40, !noalias !104
  unreachable

_ZN6parlay8internal9size_impl4sizeIRNS_16delayed_sequenceImmZNS_4iotaImEEDaT_EUlmE_EEEEDaOS5_.exit.i.i.i: ; preds = %invoke.cont.i
  %n_elements.i.i.i = getelementptr inbounds %"struct.parlay::internal::delayed::block_delayed_zip_t", %"struct.parlay::internal::delayed::block_delayed_zip_t"* %z.i, i64 0, i32 0
  %sub.i.i.i.i.i45.i = sub i64 %vs.idx.val.idx1.val.i.i.i, %vs.idx.val.idx.val.i.i.i
  %cmp.i.i.i.i.i48.i = icmp ult i64 %add8.i, %sub.i.i.i.i.i45.i
  %172 = select i1 %cmp.i.i.i.i.i48.i, i64 %add8.i, i64 %sub.i.i.i.i.i45.i
  store i64 %172, i64* %n_elements.i.i.i, align 8, !tbaa !105, !alias.scope !101, !noalias !60
  %cmp.i.i.i.i154 = icmp eq i64 %172, 0
  br i1 %cmp.i.i.i.i154, label %invoke.cont11.i, label %cond.false.i.i.i.i

cond.false.i.i.i.i:                               ; preds = %_ZN6parlay8internal9size_impl4sizeIRNS_16delayed_sequenceImmZNS_4iotaImEEDaT_EUlmE_EEEEDaOS5_.exit.i.i.i
  %sub.i.i.i.i = add i64 %172, -1
  %div.i.i.i.i = udiv i64 %sub.i.i.i.i, 2000
  %add.i.i.i.i = add nuw nsw i64 %div.i.i.i.i, 1
  br label %invoke.cont11.i

invoke.cont11.i:                                  ; preds = %cond.false.i.i.i.i, %_ZN6parlay8internal9size_impl4sizeIRNS_16delayed_sequenceImmZNS_4iotaImEEDaT_EUlmE_EEEEDaOS5_.exit.i.i.i
  %v.idx.val.i.i.i = phi i64 [ %add.i.i.i.i, %cond.false.i.i.i.i ], [ 0, %_ZN6parlay8internal9size_impl4sizeIRNS_16delayed_sequenceImmZNS_4iotaImEEDaT_EUlmE_EEEEDaOS5_.exit.i.i.i ]
  %n_blocks.i.i.i = getelementptr inbounds %"struct.parlay::internal::delayed::block_delayed_zip_t", %"struct.parlay::internal::delayed::block_delayed_zip_t"* %z.i, i64 0, i32 1
  store i64 %v.idx.val.i.i.i, i64* %n_blocks.i.i.i, align 8, !tbaa !108, !alias.scope !101, !noalias !60
  %ref.tmp7.sroa.0.0..sroa_idx.i = getelementptr inbounds %"struct.parlay::internal::delayed::block_delayed_zip_t", %"struct.parlay::internal::delayed::block_delayed_zip_t"* %z.i, i64 0, i32 2, i32 0, i32 0, i32 0, i32 0, i32 0
  store i64 0, i64* %ref.tmp7.sroa.0.0..sroa_idx.i, align 8, !tbaa.struct !109, !noalias !60
  %ref.tmp7.sroa.6.0..sroa_idx61.i = getelementptr inbounds %"struct.parlay::internal::delayed::block_delayed_zip_t", %"struct.parlay::internal::delayed::block_delayed_zip_t"* %z.i, i64 0, i32 2, i32 0, i32 0, i32 0, i32 0, i32 1
  store i64 %add8.i, i64* %ref.tmp7.sroa.6.0..sroa_idx61.i, align 8, !tbaa.struct !110, !noalias !60
  %_M_data.i.i.i.i.i.i.i = getelementptr inbounds %"struct.parlay::internal::delayed::block_delayed_zip_t", %"struct.parlay::internal::delayed::block_delayed_zip_t"* %z.i, i64 0, i32 2, i32 0, i32 1, i32 0, i32 0
  store %"struct.parlay::internal::delayed::block_delayed_scan_t"* %first.i.i42.i, %"struct.parlay::internal::delayed::block_delayed_scan_t"** %_M_data.i.i.i.i.i.i.i, align 8, !tbaa !111, !alias.scope !101, !noalias !60
  %173 = bitcast i8** %start.i to i8*
  call void @llvm.lifetime.start.p0i8(i64 8, i8* nonnull %173) #37, !noalias !60
  %bf.load.i.i.i.i.i = load i8, i8* %flag.i.i.i.i, align 1, !noalias !60
  %174 = load %"struct.parlay::sequence_internal::sequence_base<char, parlay::allocator<char>, true>::storage_impl::capacitated_buffer::header"*, %"struct.parlay::sequence_internal::sequence_base<char, parlay::allocator<char>, true>::storage_impl::capacitated_buffer::header"** %buffer.i.i.i.i.i.i.i, align 8, !noalias !60
  %cmp.not.i.i.i.i.i50.i = icmp eq %"struct.parlay::sequence_internal::sequence_base<char, parlay::allocator<char>, true>::storage_impl::capacitated_buffer::header"* %174, null
  %175 = getelementptr inbounds %"struct.parlay::sequence_internal::sequence_base<char, parlay::allocator<char>, true>::storage_impl::capacitated_buffer::header", %"struct.parlay::sequence_internal::sequence_base<char, parlay::allocator<char>, true>::storage_impl::capacitated_buffer::header"* %174, i64 0, i32 1, i32 0, i64 0
  %spec.select.i.i.i.i.i.i = select i1 %cmp.not.i.i.i.i.i50.i, i8* null, i8* %175
  %cmp.i5.i.i.i.i = icmp slt i8 %bf.load.i.i.i.i.i, 0
  %retval.0.i.i.i.i = select i1 %cmp.i5.i.i.i.i, i8* %spec.select.i.i.i.i.i.i, i8* %23
  store i8* %retval.0.i.i.i.i, i8** %start.i, align 8, !tbaa !52, !noalias !60
  %176 = bitcast %"class.parlay::sequence.1"* %result.i to i8*
  call void @llvm.lifetime.start.p0i8(i64 16, i8* nonnull %176) #37, !noalias !60
  invoke void @_ZN6parlay8sequenceIPcNS_9allocatorIS1_EELb0EE13uninitializedEm(%"class.parlay::sequence.1"* nonnull sret(%"class.parlay::sequence.1") align 8 %result.i, i64 noundef %154)
          to label %invoke.cont17.i unwind label %lpad13.i, !noalias !60

invoke.cont17.i:                                  ; preds = %invoke.cont11.i
  %177 = bitcast %class.anon.366* %ref.tmp15.i to i8*
  call void @llvm.lifetime.start.p0i8(i64 32, i8* nonnull %177) #37, !noalias !60
  %178 = getelementptr inbounds %class.anon.366, %class.anon.366* %ref.tmp15.i, i64 0, i32 0
  store %class.anon.327* %is_end.i, %class.anon.327** %178, align 8, !tbaa !52, !noalias !60
  %179 = getelementptr inbounds %class.anon.366, %class.anon.366* %ref.tmp15.i, i64 0, i32 1
  store %"class.parlay::sequence.1"* %result.i, %"class.parlay::sequence.1"** %179, align 8, !tbaa !52, !noalias !60
  %180 = getelementptr inbounds %class.anon.366, %class.anon.366* %ref.tmp15.i, i64 0, i32 2
  store %"class.std::ios_base::Init"* %get_word, %"class.std::ios_base::Init"** %180, align 8, !tbaa !52, !noalias !60
  %181 = getelementptr inbounds %class.anon.366, %class.anon.366* %ref.tmp15.i, i64 0, i32 3
  store i8** %start.i, i8*** %181, align 8, !tbaa !52, !noalias !60
  call fastcc void @"_ZN6parlay12parallel_forIZNS_8internal7delayed8for_eachIRNS2_19block_delayed_zip_tIJRNS2_20block_delayed_scan_tIRNS_16delayed_sequenceISt4pairIllES8_ZNS_10map_tokensIRNS_8sequenceIcNS_9allocatorIcEELb1EEERZ10wordCountsRKSD_bE3$_1Z10wordCountsSG_bE3$_2EEDaOT_OT0_OT1_EUlmE1_EELb0EZNS9_ISE_SI_SJ_EEDaSL_SN_SP_EUlS8_S8_E_S8_EENS6_ImmZNS_4iotaImEEDaSK_EUlmE_EEEEEZNS9_ISE_SI_SJ_EEDaSL_SN_SP_EUlSL_E_Li0EEEvSL_SN_EUlmE_EEvmmSK_lb"(i64 noundef %v.idx.val.i.i.i, %"struct.parlay::internal::delayed::block_delayed_zip_t"* nonnull %z.i, %class.anon.366* nonnull %ref.tmp15.i) #37, !noalias !60
  call void @llvm.lifetime.end.p0i8(i64 32, i8* nonnull %177) #37, !noalias !60
  %call.i.i.i.i51.i = invoke noundef nonnull align 8 dereferenceable(80) %"struct.parlay::internal::pool_allocator"* @_ZN6parlay8internal21get_default_allocatorEv()
          to label %_ZN6parlay8sequenceIPcNS_9allocatorIS1_EELb0EEC2EOS4_.exit.i unwind label %terminate.lpad.i.i.i.i52.i, !noalias !60

terminate.lpad.i.i.i.i52.i:                       ; preds = %invoke.cont17.i
  %182 = landingpad { i8*, i32 }
          catch i8* null
  %183 = extractvalue { i8*, i32 } %182, 0
  call void @__clang_call_terminate(i8* %183) #40, !noalias !60
  unreachable

_ZN6parlay8sequenceIPcNS_9allocatorIS1_EELb0EEC2EOS4_.exit.i: ; preds = %invoke.cont17.i
  call void @llvm.memcpy.p0i8.p0i8.i64(i8* noundef nonnull align 8 dereferenceable(15) %57, i8* noundef nonnull align 8 dereferenceable(15) %176, i64 15, i1 false) #37
  call void @llvm.memset.p0i8.i64(i8* noundef nonnull align 8 dereferenceable(15) %176, i8 0, i64 15, i1 false) #37, !noalias !60
  %184 = getelementptr inbounds %"class.std::ios_base::Init", %"class.std::ios_base::Init"* %alloc.i.i.i.i, i64 0, i32 0
  call void @llvm.lifetime.start.p0i8(i64 1, i8* nonnull %184) #37, !noalias !60
  %buffer.i.i.i.i = bitcast %"class.parlay::sequence.1"* %result.i to %"struct.parlay::sequence_internal::sequence_base<std::pair<long, long>, parlay::allocator<std::pair<long, long>>, false>::storage_impl::capacitated_buffer"*
  invoke void @_ZN6parlay17sequence_internal13sequence_baseIPcNS_9allocatorIS2_EELb0EE12storage_impl18capacitated_buffer11free_bufferERNS3_ISt4byteEE(%"struct.parlay::sequence_internal::sequence_base<std::pair<long, long>, parlay::allocator<std::pair<long, long>>, false>::storage_impl::capacitated_buffer"* noundef nonnull align 1 dereferenceable(8) %buffer.i.i.i.i, %"class.std::ios_base::Init"* noundef nonnull align 1 dereferenceable(1) %alloc.i.i.i.i)
          to label %_ZN6parlay17sequence_internal13sequence_baseIPcNS_9allocatorIS2_EELb0EED2Ev.exit.i unwind label %lpad.i.i.i, !noalias !60

lpad.i.i.i:                                       ; preds = %_ZN6parlay8sequenceIPcNS_9allocatorIS1_EELb0EEC2EOS4_.exit.i
  %185 = landingpad { i8*, i32 }
          catch i8* null
  %186 = extractvalue { i8*, i32 } %185, 0
  call void @__clang_call_terminate(i8* %186) #40, !noalias !60
  unreachable

_ZN6parlay17sequence_internal13sequence_baseIPcNS_9allocatorIS2_EELb0EED2Ev.exit.i: ; preds = %_ZN6parlay8sequenceIPcNS_9allocatorIS1_EELb0EEC2EOS4_.exit.i
  call void @llvm.lifetime.end.p0i8(i64 1, i8* nonnull %184) #37, !noalias !60
  call void @llvm.lifetime.end.p0i8(i64 16, i8* nonnull %176) #37, !noalias !60
  call void @llvm.lifetime.end.p0i8(i64 8, i8* nonnull %173) #37, !noalias !60
  call void @llvm.lifetime.end.p0i8(i64 48, i8* nonnull %170) #37, !noalias !60
  %187 = getelementptr inbounds %"class.std::ios_base::Init", %"class.std::ios_base::Init"* %alloc.i.i.i.i.i53.i, i64 0, i32 0
  call void @llvm.lifetime.start.p0i8(i64 1, i8* nonnull %187) #37, !noalias !60
  %buffer.i.i.i.i.i55.i = bitcast %"class.parlay::sequence.1"* %block_sums.i.i.i.i.i to %"struct.parlay::sequence_internal::sequence_base<std::pair<long, long>, parlay::allocator<std::pair<long, long>>, false>::storage_impl::capacitated_buffer"*
  invoke void @_ZN6parlay17sequence_internal13sequence_baseISt4pairIllENS_9allocatorIS3_EELb0EE12storage_impl18capacitated_buffer11free_bufferERNS4_ISt4byteEE(%"struct.parlay::sequence_internal::sequence_base<std::pair<long, long>, parlay::allocator<std::pair<long, long>>, false>::storage_impl::capacitated_buffer"* noundef nonnull align 1 dereferenceable(8) %buffer.i.i.i.i.i55.i, %"class.std::ios_base::Init"* noundef nonnull align 1 dereferenceable(1) %alloc.i.i.i.i.i53.i)
          to label %"_ZNSt4pairIN6parlay8internal7delayed20block_delayed_scan_tIRNS0_16delayed_sequenceIS_IllES5_ZNS0_10map_tokensIRNS0_8sequenceIcNS0_9allocatorIcEELb1EEERZ10wordCountsRKSA_bE3$_1Z10wordCountsSD_bE3$_2EEDaOT_OT0_OT1_EUlmE1_EELb0EZNS6_ISB_SF_SG_EEDaSI_SK_SM_EUlS5_S5_E_S5_EES5_ED2Ev.exit.i" unwind label %lpad.i.i.i.i56.i, !noalias !60

lpad.i.i.i.i56.i:                                 ; preds = %_ZN6parlay17sequence_internal13sequence_baseIPcNS_9allocatorIS2_EELb0EED2Ev.exit.i
  %188 = landingpad { i8*, i32 }
          catch i8* null
  %189 = extractvalue { i8*, i32 } %188, 0
  call void @__clang_call_terminate(i8* %189) #40, !noalias !60
  unreachable

"_ZNSt4pairIN6parlay8internal7delayed20block_delayed_scan_tIRNS0_16delayed_sequenceIS_IllES5_ZNS0_10map_tokensIRNS0_8sequenceIcNS0_9allocatorIcEELb1EEERZ10wordCountsRKSA_bE3$_1Z10wordCountsSD_bE3$_2EEDaOT_OT0_OT1_EUlmE1_EELb0EZNS6_ISB_SF_SG_EEDaSI_SK_SM_EUlS5_S5_E_S5_EES5_ED2Ev.exit.i": ; preds = %_ZN6parlay17sequence_internal13sequence_baseIPcNS_9allocatorIS2_EELb0EED2Ev.exit.i
  call void @llvm.lifetime.end.p0i8(i64 1, i8* nonnull %187) #37, !noalias !60
  call void @llvm.lifetime.end.p0i8(i64 64, i8* nonnull %79) #37, !noalias !60
  call void @llvm.lifetime.end.p0i8(i64 24, i8* nonnull %76) #37, !noalias !60
  call void @llvm.lifetime.end.p0i8(i64 24, i8* nonnull %72) #37, !noalias !60
  call void @llvm.lifetime.end.p0i8(i64 24, i8* nonnull %68) #37, !noalias !60
  br label %invoke.cont27

lpad13.i:                                         ; preds = %invoke.cont11.i
  %190 = landingpad { i8*, i32 }
          cleanup
  call void @llvm.lifetime.end.p0i8(i64 16, i8* nonnull %176) #37, !noalias !60
  call void @llvm.lifetime.end.p0i8(i64 8, i8* nonnull %173) #37, !noalias !60
  call void @llvm.lifetime.end.p0i8(i64 48, i8* nonnull %170) #37, !noalias !60
  call fastcc void @"_ZNSt4pairIN6parlay8internal7delayed20block_delayed_scan_tIRNS0_16delayed_sequenceIS_IllES5_ZNS0_10map_tokensIRNS0_8sequenceIcNS0_9allocatorIcEELb1EEERZ10wordCountsRKSA_bE3$_1Z10wordCountsSD_bE3$_2EEDaOT_OT0_OT1_EUlmE1_EELb0EZNS6_ISB_SF_SG_EEDaSI_SK_SM_EUlS5_S5_E_S5_EES5_ED2Ev"(%"struct.std::pair.331"* noundef nonnull align 8 dereferenceable(64) %0) #37, !noalias !60
  call void @llvm.lifetime.end.p0i8(i64 64, i8* nonnull %79) #37, !noalias !60
  call void @llvm.lifetime.end.p0i8(i64 24, i8* nonnull %76) #37, !noalias !60
  call void @llvm.lifetime.end.p0i8(i64 24, i8* nonnull %72) #37, !noalias !60
  call void @llvm.lifetime.end.p0i8(i64 24, i8* nonnull %68) #37, !noalias !60
  call void @llvm.lifetime.end.p0i8(i64 8, i8* nonnull %65) #37, !noalias !60
  call void @llvm.lifetime.end.p0i8(i64 16, i8* nonnull %59) #37, !noalias !60
  br label %lpad26.body

invoke.cont27:                                    ; preds = %"_ZNSt4pairIN6parlay8internal7delayed20block_delayed_scan_tIRNS0_16delayed_sequenceIS_IllES5_ZNS0_10map_tokensIRNS0_8sequenceIcNS0_9allocatorIcEELb1EEERZ10wordCountsRKSA_bE3$_1Z10wordCountsSD_bE3$_2EEDaOT_OT0_OT1_EUlmE1_EELb0EZNS6_ISB_SF_SG_EEDaSI_SK_SM_EUlS5_S5_E_S5_EES5_ED2Ev.exit.i", %_ZN6parlay8sequenceIPcNS_9allocatorIS1_EELb0EEC2Ev.exit.i
  call void @llvm.lifetime.end.p0i8(i64 8, i8* nonnull %65) #37, !noalias !60
  call void @llvm.lifetime.end.p0i8(i64 16, i8* nonnull %59) #37, !noalias !60
  call void @llvm.lifetime.end.p0i8(i64 1, i8* nonnull %58) #37
  %191 = getelementptr inbounds %"class.std::__cxx11::basic_string", %"class.std::__cxx11::basic_string"* %agg.tmp29, i64 0, i32 2
  %192 = bitcast %"class.std::__cxx11::basic_string"* %agg.tmp29 to %union.anon**
  store %union.anon* %191, %union.anon** %192, align 8, !tbaa !7
  %193 = bitcast %union.anon* %191 to i8*
  call void @llvm.memcpy.p0i8.p0i8.i64(i8* noundef nonnull align 8 dereferenceable(6) %193, i8* noundef nonnull align 1 dereferenceable(6) getelementptr inbounds ([7 x i8], [7 x i8]* @.str.6, i64 0, i64 0), i64 6, i1 false) #37
  %_M_p.i8.i.i168 = getelementptr inbounds %"class.std::__cxx11::basic_string", %"class.std::__cxx11::basic_string"* %agg.tmp29, i64 0, i32 0, i32 0
  %_M_string_length.i.i.i.i169 = getelementptr inbounds %"class.std::__cxx11::basic_string", %"class.std::__cxx11::basic_string"* %agg.tmp29, i64 0, i32 1
  store i64 6, i64* %_M_string_length.i.i.i.i169, align 8, !tbaa !10
  %arrayidx.i.i.i170 = getelementptr inbounds i8, i8* %193, i64 6
  store i8 0, i8* %arrayidx.i.i.i170, align 2, !tbaa !12
  invoke void @_ZN5timer4nextENSt7__cxx1112basic_stringIcSt11char_traitsIcESaIcEEE(%struct.timer* noundef nonnull align 8 dereferenceable(64) %t, %"class.std::__cxx11::basic_string"* noundef nonnull %agg.tmp29)
          to label %invoke.cont34 unwind label %lpad33

invoke.cont34:                                    ; preds = %invoke.cont27
  %194 = load i8*, i8** %_M_p.i8.i.i168, align 8, !tbaa !26
  %cmp.i.i.i176 = icmp eq i8* %194, %193
  br i1 %cmp.i.i.i176, label %_ZNSt7__cxx1112basic_stringIcSt11char_traitsIcESaIcEED2Ev.exit179, label %if.then.i.i177

if.then.i.i177:                                   ; preds = %invoke.cont34
  call void @_ZdlPv(i8* noundef %194) #38
  br label %_ZNSt7__cxx1112basic_stringIcSt11char_traitsIcESaIcEED2Ev.exit179

_ZNSt7__cxx1112basic_stringIcSt11char_traitsIcESaIcEED2Ev.exit179: ; preds = %if.then.i.i177, %invoke.cont34
  %call1.i182 = invoke noundef nonnull align 8 dereferenceable(8) %"class.std::basic_ostream"* @_ZSt16__ostream_insertIcSt11char_traitsIcEERSt13basic_ostreamIT_T0_ES6_PKS3_l(%"class.std::basic_ostream"* noundef nonnull align 8 dereferenceable(8) @_ZSt4cout, i8* noundef nonnull getelementptr inbounds ([19 x i8], [19 x i8]* @.str.7, i64 0, i64 0), i64 noundef 18)
          to label %invoke.cont41 unwind label %lpad38

invoke.cont41:                                    ; preds = %_ZNSt7__cxx1112basic_stringIcSt11char_traitsIcESaIcEED2Ev.exit179
  %195 = getelementptr inbounds %"class.parlay::sequence.1", %"class.parlay::sequence.1"* %words, i64 0, i32 0, i32 0, i32 0, i32 0, i32 1
  %196 = bitcast [6 x i8]* %195 to i48*
  %bf.load.i.i.i184 = load i48, i48* %196, align 8
  %bf.cast.i.i.i185 = zext i48 %bf.load.i.i.i184 to i64
  %call.i186 = invoke noundef nonnull align 8 dereferenceable(8) %"class.std::basic_ostream"* @_ZNSo9_M_insertImEERSoT_(%"class.std::basic_ostream"* noundef nonnull align 8 dereferenceable(8) @_ZSt4cout, i64 noundef %bf.cast.i.i.i185)
          to label %invoke.cont43 unwind label %lpad38

invoke.cont43:                                    ; preds = %invoke.cont41
  %197 = bitcast %"class.std::basic_ostream"* %call.i186 to i8**
  %vtable.i394 = load i8*, i8** %197, align 8, !tbaa !36
  %vbase.offset.ptr.i395 = getelementptr i8, i8* %vtable.i394, i64 -24
  %198 = bitcast i8* %vbase.offset.ptr.i395 to i64*
  %vbase.offset.i396 = load i64, i64* %198, align 8
  %199 = bitcast %"class.std::basic_ostream"* %call.i186 to i8*
  %add.ptr.i397 = getelementptr inbounds i8, i8* %199, i64 %vbase.offset.i396
  %_M_ctype.i.i398 = getelementptr inbounds i8, i8* %add.ptr.i397, i64 240
  %200 = bitcast i8* %_M_ctype.i.i398 to %"class.std::ctype"**
  %201 = load %"class.std::ctype"*, %"class.std::ctype"** %200, align 8, !tbaa !38
  %tobool.not.i.i.i399 = icmp eq %"class.std::ctype"* %201, null
  br i1 %tobool.not.i.i.i399, label %if.then.i.i.i400, label %_ZSt13__check_facetISt5ctypeIcEERKT_PS3_.exit.i.i403

if.then.i.i.i400:                                 ; preds = %invoke.cont43
  invoke void @_ZSt16__throw_bad_castv() #39
          to label %.noexc413 unwind label %lpad38

.noexc413:                                        ; preds = %if.then.i.i.i400
  unreachable

_ZSt13__check_facetISt5ctypeIcEERKT_PS3_.exit.i.i403: ; preds = %invoke.cont43
  %_M_widen_ok.i.i.i401 = getelementptr inbounds %"class.std::ctype", %"class.std::ctype"* %201, i64 0, i32 8
  %202 = load i8, i8* %_M_widen_ok.i.i.i401, align 8, !tbaa !40
  %tobool.not.i3.i.i402 = icmp eq i8 %202, 0
  br i1 %tobool.not.i3.i.i402, label %if.end.i.i.i409, label %if.then.i4.i.i405

if.then.i4.i.i405:                                ; preds = %_ZSt13__check_facetISt5ctypeIcEERKT_PS3_.exit.i.i403
  %arrayidx.i.i.i404 = getelementptr inbounds %"class.std::ctype", %"class.std::ctype"* %201, i64 0, i32 9, i64 10
  %203 = load i8, i8* %arrayidx.i.i.i404, align 1, !tbaa !12
  br label %_ZNKSt9basic_iosIcSt11char_traitsIcEE5widenEc.exit.i412

if.end.i.i.i409:                                  ; preds = %_ZSt13__check_facetISt5ctypeIcEERKT_PS3_.exit.i.i403
  invoke void @_ZNKSt5ctypeIcE13_M_widen_initEv(%"class.std::ctype"* noundef nonnull align 8 dereferenceable(570) %201)
          to label %.noexc414 unwind label %lpad38

.noexc414:                                        ; preds = %if.end.i.i.i409
  %204 = bitcast %"class.std::ctype"* %201 to i8 (%"class.std::ctype"*, i8)***
  %vtable.i.i.i406 = load i8 (%"class.std::ctype"*, i8)**, i8 (%"class.std::ctype"*, i8)*** %204, align 8, !tbaa !36
  %vfn.i.i.i407 = getelementptr inbounds i8 (%"class.std::ctype"*, i8)*, i8 (%"class.std::ctype"*, i8)** %vtable.i.i.i406, i64 6
  %205 = load i8 (%"class.std::ctype"*, i8)*, i8 (%"class.std::ctype"*, i8)** %vfn.i.i.i407, align 8
  %call.i.i.i408415 = invoke noundef signext i8 %205(%"class.std::ctype"* noundef nonnull align 8 dereferenceable(570) %201, i8 noundef signext 10)
          to label %_ZNKSt9basic_iosIcSt11char_traitsIcEE5widenEc.exit.i412 unwind label %lpad38

_ZNKSt9basic_iosIcSt11char_traitsIcEE5widenEc.exit.i412: ; preds = %.noexc414, %if.then.i4.i.i405
  %retval.0.i.i.i410 = phi i8 [ %203, %if.then.i4.i.i405 ], [ %call.i.i.i408415, %.noexc414 ]
  %call1.i417 = invoke noundef nonnull align 8 dereferenceable(8) %"class.std::basic_ostream"* @_ZNSo3putEc(%"class.std::basic_ostream"* noundef nonnull align 8 dereferenceable(8) %call.i186, i8 noundef signext %retval.0.i.i.i410)
          to label %call1.i.noexc416 unwind label %lpad38

call1.i.noexc416:                                 ; preds = %_ZNKSt9basic_iosIcSt11char_traitsIcEE5widenEc.exit.i412
  %call.i.i411418 = invoke noundef nonnull align 8 dereferenceable(8) %"class.std::basic_ostream"* @_ZNSo5flushEv(%"class.std::basic_ostream"* noundef nonnull align 8 dereferenceable(8) %call1.i417)
          to label %invoke.cont45 unwind label %lpad38

invoke.cont45:                                    ; preds = %call1.i.noexc416
  %206 = getelementptr inbounds %"class.std::ios_base::Init", %"class.std::ios_base::Init"* %strhash, i64 0, i32 0
  call void @llvm.lifetime.start.p0i8(i64 1, i8* nonnull %206) #37
  %207 = getelementptr inbounds %"class.std::ios_base::Init", %"class.std::ios_base::Init"* %eql, i64 0, i32 0
  call void @llvm.lifetime.start.p0i8(i64 1, i8* nonnull %207) #37
  %208 = bitcast %"class.parlay::sequence.1"* %hist to i8*
  call void @llvm.lifetime.start.p0i8(i64 16, i8* nonnull %208) #37
  %209 = bitcast %"struct.parlay::count_by_key_helper"* %helper.i to i8*
  call void @llvm.lifetime.start.p0i8(i64 16, i8* nonnull %209) #37, !noalias !113
  %hash.i.i = getelementptr inbounds %"struct.parlay::count_by_key_helper", %"struct.parlay::count_by_key_helper"* %helper.i, i64 0, i32 0
  store %"class.std::ios_base::Init"* %strhash, %"class.std::ios_base::Init"** %hash.i.i, align 8, !tbaa !52, !noalias !113
  %equal.i.i = getelementptr inbounds %"struct.parlay::count_by_key_helper", %"struct.parlay::count_by_key_helper"* %helper.i, i64 0, i32 1
  store %"class.std::ios_base::Init"* %eql, %"class.std::ios_base::Init"** %equal.i.i, align 8, !tbaa !52, !noalias !113
  %buffer.i.i.i.i.i.i.i.i195 = bitcast %"class.parlay::sequence.1"* %words to %"struct.parlay::sequence_internal::sequence_base<std::pair<long, long>, parlay::allocator<std::pair<long, long>>, false>::storage_impl::capacitated_buffer::header"**
  %210 = load %"struct.parlay::sequence_internal::sequence_base<std::pair<long, long>, parlay::allocator<std::pair<long, long>>, false>::storage_impl::capacitated_buffer::header"*, %"struct.parlay::sequence_internal::sequence_base<std::pair<long, long>, parlay::allocator<std::pair<long, long>>, false>::storage_impl::capacitated_buffer::header"** %buffer.i.i.i.i.i.i.i.i195, align 8, !tbaa !116, !noalias !118
  %cmp.not.i.i.i.i.i.i.i.i = icmp eq %"struct.parlay::sequence_internal::sequence_base<std::pair<long, long>, parlay::allocator<std::pair<long, long>>, false>::storage_impl::capacitated_buffer::header"* %210, null
  %data.i.i.i.i.i.i.i.i.i = getelementptr inbounds %"struct.parlay::sequence_internal::sequence_base<std::pair<long, long>, parlay::allocator<std::pair<long, long>>, false>::storage_impl::capacitated_buffer::header", %"struct.parlay::sequence_internal::sequence_base<std::pair<long, long>, parlay::allocator<std::pair<long, long>>, false>::storage_impl::capacitated_buffer::header"* %210, i64 0, i32 1, i32 0
  %211 = bitcast [1 x i8]* %data.i.i.i.i.i.i.i.i.i to i8**
  %retval.0.i.i.i.i.i.i.i.i = select i1 %cmp.not.i.i.i.i.i.i.i.i, i8** null, i8** %211
  %add.ptr.i.i.i.i.i = getelementptr inbounds i8*, i8** %retval.0.i.i.i.i.i.i.i.i, i64 %bf.cast.i.i.i185
  %212 = bitcast %"struct.parlay::slice.391"* %A.i.i.i to i8*
  call void @llvm.lifetime.start.p0i8(i64 16, i8* nonnull %212), !noalias !118
  %213 = bitcast %"class.std::__cxx11::basic_string"* %agg.tmp.i.i.i to i8*
  call void @llvm.lifetime.start.p0i8(i64 32, i8* nonnull %213), !noalias !118
  %214 = bitcast %"class.std::__cxx11::basic_string"* %agg.tmp35.i.i.i to i8*
  call void @llvm.lifetime.start.p0i8(i64 32, i8* nonnull %214), !noalias !118
  %215 = bitcast %"class.std::__cxx11::basic_string"* %agg.tmp48.i.i.i to i8*
  call void @llvm.lifetime.start.p0i8(i64 32, i8* nonnull %215), !noalias !118
  %216 = getelementptr inbounds %"struct.parlay::slice.391", %"struct.parlay::slice.391"* %A.i.i.i, i64 0, i32 0
  store i8** %retval.0.i.i.i.i.i.i.i.i, i8*** %216, align 8, !noalias !121
  %217 = getelementptr inbounds %"struct.parlay::slice.391", %"struct.parlay::slice.391"* %A.i.i.i, i64 0, i32 1
  store i8** %add.ptr.i.i.i.i.i, i8*** %217, align 8, !noalias !121
  %218 = bitcast %"struct.parlay::internal::timer"* %t.i.i.i to i8*
  call void @llvm.lifetime.start.p0i8(i64 56, i8* nonnull %218) #37, !noalias !121
  %219 = getelementptr inbounds %"class.std::__cxx11::basic_string", %"class.std::__cxx11::basic_string"* %agg.tmp.i.i.i, i64 0, i32 2
  %220 = bitcast %"class.std::__cxx11::basic_string"* %agg.tmp.i.i.i to %union.anon**
  store %union.anon* %219, %union.anon** %220, align 8, !tbaa !7, !noalias !121
  %221 = bitcast %union.anon* %219 to i8*
  %222 = bitcast i64* %__dnew.i.i.i.i.i to i8*
  call void @llvm.lifetime.start.p0i8(i64 8, i8* nonnull %222) #37, !noalias !121
  store i64 21, i64* %__dnew.i.i.i.i.i, align 8, !tbaa !3, !noalias !121
  %call2.i13.i108.i.i.i260 = invoke noundef i8* @_ZNSt7__cxx1112basic_stringIcSt11char_traitsIcESaIcEE9_M_createERmm(%"class.std::__cxx11::basic_string"* noundef nonnull align 8 dereferenceable(32) %agg.tmp.i.i.i, i64* noundef nonnull align 8 dereferenceable(8) %__dnew.i.i.i.i.i, i64 noundef 0)
          to label %call2.i13.i108.i.i.i.noexc unwind label %lpad47

call2.i13.i108.i.i.i.noexc:                       ; preds = %invoke.cont45
  %_M_p.i.i.i.i.i.i = getelementptr inbounds %"class.std::__cxx11::basic_string", %"class.std::__cxx11::basic_string"* %agg.tmp.i.i.i, i64 0, i32 0, i32 0
  store i8* %call2.i13.i108.i.i.i260, i8** %_M_p.i.i.i.i.i.i, align 8, !tbaa !26, !noalias !121
  %223 = load i64, i64* %__dnew.i.i.i.i.i, align 8, !tbaa !3, !noalias !121
  %_M_allocated_capacity.i.i.i.i.i.i = getelementptr inbounds %"class.std::__cxx11::basic_string", %"class.std::__cxx11::basic_string"* %agg.tmp.i.i.i, i64 0, i32 2, i32 0
  store i64 %223, i64* %_M_allocated_capacity.i.i.i.i.i.i, align 8, !tbaa !12, !noalias !121
  call void @llvm.memcpy.p0i8.p0i8.i64(i8* noundef nonnull align 1 dereferenceable(21) %call2.i13.i108.i.i.i260, i8* noundef nonnull align 1 dereferenceable(21) getelementptr inbounds ([22 x i8], [22 x i8]* @.str.34, i64 0, i64 0), i64 21, i1 false) #37, !noalias !121
  %_M_string_length.i.i.i.i.i.i.i = getelementptr inbounds %"class.std::__cxx11::basic_string", %"class.std::__cxx11::basic_string"* %agg.tmp.i.i.i, i64 0, i32 1
  store i64 %223, i64* %_M_string_length.i.i.i.i.i.i.i, align 8, !tbaa !10, !noalias !121
  %224 = load i8*, i8** %_M_p.i.i.i.i.i.i, align 8, !tbaa !26, !noalias !121
  %arrayidx.i.i.i.i.i.i = getelementptr inbounds i8, i8* %224, i64 %223
  store i8 0, i8* %arrayidx.i.i.i.i.i.i, align 1, !tbaa !12, !noalias !121
  call void @llvm.lifetime.end.p0i8(i64 8, i8* nonnull %222) #37, !noalias !121
  %name2.i.i.i.i = getelementptr inbounds %"struct.parlay::internal::timer", %"struct.parlay::internal::timer"* %t.i.i.i, i64 0, i32 3
  %225 = getelementptr inbounds %"struct.parlay::internal::timer", %"struct.parlay::internal::timer"* %t.i.i.i, i64 0, i32 3, i32 2
  %226 = bitcast %"class.std::__cxx11::basic_string"* %name2.i.i.i.i to %union.anon**
  call void @llvm.memset.p0i8.i64(i8* noundef nonnull align 8 dereferenceable(17) %218, i8 0, i64 17, i1 false), !noalias !121
  store %union.anon* %225, %union.anon** %226, align 8, !tbaa !7, !noalias !121
  %227 = load i8*, i8** %_M_p.i.i.i.i.i.i, align 8, !tbaa !26, !noalias !121
  %228 = load i64, i64* %_M_string_length.i.i.i.i.i.i.i, align 8, !tbaa !10, !noalias !121
  %229 = bitcast i64* %__dnew.i.i.i.i.i.i to i8*
  call void @llvm.lifetime.start.p0i8(i64 8, i8* nonnull %229) #37, !noalias !121
  store i64 %228, i64* %__dnew.i.i.i.i.i.i, align 8, !tbaa !3, !noalias !121
  %cmp.i.i.i.i.i.i196 = icmp ugt i64 %228, 15
  br i1 %cmp.i.i.i.i.i.i196, label %if.then.i.i.i.i.i.i, label %entry.if.end_crit_edge.i.i.i.i.i.i

entry.if.end_crit_edge.i.i.i.i.i.i:               ; preds = %call2.i13.i108.i.i.i.noexc
  %230 = bitcast %union.anon* %225 to i8*
  br label %if.end.i.i.i.i.i.i197

if.then.i.i.i.i.i.i:                              ; preds = %call2.i13.i108.i.i.i.noexc
  %call2.i16.i.i109.i.i.i = invoke noundef i8* @_ZNSt7__cxx1112basic_stringIcSt11char_traitsIcESaIcEE9_M_createERmm(%"class.std::__cxx11::basic_string"* noundef nonnull align 8 dereferenceable(32) %name2.i.i.i.i, i64* noundef nonnull align 8 dereferenceable(8) %__dnew.i.i.i.i.i.i, i64 noundef 0)
          to label %call2.i16.i.i.noexc.i.i.i unwind label %lpad1.i.i.i, !noalias !124

call2.i16.i.i.noexc.i.i.i:                        ; preds = %if.then.i.i.i.i.i.i
  %_M_p.i.i.i.i.i.i.i = getelementptr inbounds %"class.std::__cxx11::basic_string", %"class.std::__cxx11::basic_string"* %name2.i.i.i.i, i64 0, i32 0, i32 0
  store i8* %call2.i16.i.i109.i.i.i, i8** %_M_p.i.i.i.i.i.i.i, align 8, !tbaa !26, !noalias !121
  %231 = load i64, i64* %__dnew.i.i.i.i.i.i, align 8, !tbaa !3, !noalias !121
  %_M_allocated_capacity.i.i.i.i.i.i.i = getelementptr inbounds %"struct.parlay::internal::timer", %"struct.parlay::internal::timer"* %t.i.i.i, i64 0, i32 3, i32 2, i32 0
  store i64 %231, i64* %_M_allocated_capacity.i.i.i.i.i.i.i, align 8, !tbaa !12, !noalias !121
  br label %if.end.i.i.i.i.i.i197

if.end.i.i.i.i.i.i197:                            ; preds = %call2.i16.i.i.noexc.i.i.i, %entry.if.end_crit_edge.i.i.i.i.i.i
  %232 = phi i8* [ %230, %entry.if.end_crit_edge.i.i.i.i.i.i ], [ %call2.i16.i.i109.i.i.i, %call2.i16.i.i.noexc.i.i.i ]
  switch i64 %228, label %if.end.i.i.i.i.i.i.i.i.i198 [
    i64 1, label %if.then.i.i.i.i.i.i.i.i
    i64 0, label %invoke.cont2.i.i.i
  ]

if.then.i.i.i.i.i.i.i.i:                          ; preds = %if.end.i.i.i.i.i.i197
  %233 = load i8, i8* %227, align 1, !tbaa !12, !noalias !124
  store i8 %233, i8* %232, align 1, !tbaa !12, !noalias !124
  br label %invoke.cont2.i.i.i

if.end.i.i.i.i.i.i.i.i.i198:                      ; preds = %if.end.i.i.i.i.i.i197
  call void @llvm.memcpy.p0i8.p0i8.i64(i8* align 1 %232, i8* align 1 %227, i64 %228, i1 false) #37, !noalias !124
  br label %invoke.cont2.i.i.i

invoke.cont2.i.i.i:                               ; preds = %if.end.i.i.i.i.i.i.i.i.i198, %if.then.i.i.i.i.i.i.i.i, %if.end.i.i.i.i.i.i197
  %_M_p.i9.i.i.i.i.i.i = getelementptr inbounds %"class.std::__cxx11::basic_string", %"class.std::__cxx11::basic_string"* %name2.i.i.i.i, i64 0, i32 0, i32 0
  %234 = load i64, i64* %__dnew.i.i.i.i.i.i, align 8, !tbaa !3, !noalias !121
  %_M_string_length.i.i.i.i.i.i.i.i = getelementptr inbounds %"struct.parlay::internal::timer", %"struct.parlay::internal::timer"* %t.i.i.i, i64 0, i32 3, i32 1
  store i64 %234, i64* %_M_string_length.i.i.i.i.i.i.i.i, align 8, !tbaa !10, !noalias !121
  %235 = load i8*, i8** %_M_p.i9.i.i.i.i.i.i, align 8, !tbaa !26, !noalias !121
  %arrayidx.i.i.i.i.i.i.i = getelementptr inbounds i8, i8* %235, i64 %234
  store i8 0, i8* %arrayidx.i.i.i.i.i.i.i, align 1, !tbaa !12, !noalias !124
  call void @llvm.lifetime.end.p0i8(i64 8, i8* nonnull %229) #37, !noalias !121
  %236 = load i8*, i8** %_M_p.i.i.i.i.i.i, align 8, !tbaa !26, !noalias !121
  %cmp.i.i.i111.i.i.i = icmp eq i8* %236, %221
  br i1 %cmp.i.i.i111.i.i.i, label %_ZNSt7__cxx1112basic_stringIcSt11char_traitsIcESaIcEED2Ev.exit.i.i.i, label %if.then.i.i112.i.i.i

if.then.i.i112.i.i.i:                             ; preds = %invoke.cont2.i.i.i
  call void @_ZdlPv(i8* noundef %236) #38, !noalias !124
  br label %_ZNSt7__cxx1112basic_stringIcSt11char_traitsIcESaIcEED2Ev.exit.i.i.i

_ZNSt7__cxx1112basic_stringIcSt11char_traitsIcESaIcEED2Ev.exit.i.i.i: ; preds = %if.then.i.i112.i.i.i, %invoke.cont2.i.i.i
  %237 = load i8**, i8*** %217, align 8, !tbaa !125, !noalias !121
  %238 = load i8**, i8*** %216, align 8, !tbaa !127, !noalias !121
  %sub.ptr.lhs.cast.i.i.i.i = ptrtoint i8** %237 to i64
  %sub.ptr.rhs.cast.i.i.i.i = ptrtoint i8** %238 to i64
  %sub.ptr.sub.i.i.i.i = sub i64 %sub.ptr.lhs.cast.i.i.i.i, %sub.ptr.rhs.cast.i.i.i.i
  %sub.ptr.div.i.i.i.i = ashr i64 %sub.ptr.sub.i.i.i.i, 3
  %cmp.i.i.i199 = icmp ult i64 %sub.ptr.sub.i.i.i.i, 80000
  br i1 %cmp.i.i.i199, label %if.then.i.i.i201, label %if.end.i.i.i224

if.then.i.i.i201:                                 ; preds = %_ZNSt7__cxx1112basic_stringIcSt11char_traitsIcESaIcEED2Ev.exit.i.i.i
  %mul.i.i.i.i = mul nuw nsw i64 %sub.ptr.div.i.i.i.i, 3
  %div.i.i.i.i200 = lshr i64 %mul.i.i.i.i, 1
  %239 = bitcast %"class.parlay::internal::uninitialized_sequence.425"* %table_s.i.i.i.i to i8*
  call void @llvm.lifetime.start.p0i8(i64 16, i8* nonnull %239) #37, !noalias !128
  %call.i.i113.i.i.i = invoke noundef nonnull align 8 dereferenceable(80) %"struct.parlay::internal::pool_allocator"* @_ZN6parlay8internal21get_default_allocatorEv()
          to label %_ZN6parlay9allocatorISt4pairIPcmEEC2Ev.exit.i.i.i.i unwind label %terminate.lpad.i.i.i.i.i202, !noalias !131

terminate.lpad.i.i.i.i.i202:                      ; preds = %if.then.i.i.i201
  %240 = landingpad { i8*, i32 }
          catch i8* null
  %241 = extractvalue { i8*, i32 } %240, 0
  call void @__clang_call_terminate(i8* %241) #40, !noalias !131
  unreachable

_ZN6parlay9allocatorISt4pairIPcmEEC2Ev.exit.i.i.i.i: ; preds = %if.then.i.i.i201
  %n.i.i.i.i.i.i203 = getelementptr inbounds %"class.parlay::internal::uninitialized_sequence.425", %"class.parlay::internal::uninitialized_sequence.425"* %table_s.i.i.i.i, i64 0, i32 0, i32 0
  store i64 %div.i.i.i.i200, i64* %n.i.i.i.i.i.i203, align 8, !tbaa !132, !noalias !128
  %call.i.i.i.i.i116.i.i.i = invoke noundef nonnull align 8 dereferenceable(80) %"struct.parlay::internal::pool_allocator"* @_ZN6parlay8internal21get_default_allocatorEv()
          to label %call.i.i.i.i.i.noexc.i.i.i204 unwind label %lpad4.i.i.i, !noalias !124

call.i.i.i.i.i.noexc.i.i.i204:                    ; preds = %_ZN6parlay9allocatorISt4pairIPcmEEC2Ev.exit.i.i.i.i
  %mul.i.i.i.i.i.i.i.i = shl nuw nsw i64 %div.i.i.i.i200, 4
  %call2.i.i.i.i.i117.i.i.i = invoke noundef i8* @_ZN6parlay8internal14pool_allocator8allocateEm(%"struct.parlay::internal::pool_allocator"* noundef nonnull align 8 dereferenceable(80) %call.i.i.i.i.i116.i.i.i, i64 noundef %mul.i.i.i.i.i.i.i.i)
          to label %call2.i.i.i.i.i.noexc.i.i.i unwind label %lpad4.i.i.i, !noalias !124

call2.i.i.i.i.i.noexc.i.i.i:                      ; preds = %call.i.i.i.i.i.noexc.i.i.i204
  %242 = ptrtoint i8* %call2.i.i.i.i.i117.i.i.i to i64
  %rem.i.i.i.i.i.i.i.i = and i64 %242, 7
  %cmp.i.i.i.i.i.i.i.i = icmp eq i64 %rem.i.i.i.i.i.i.i.i, 0
  br i1 %cmp.i.i.i.i.i.i.i.i, label %_ZN6parlay8internal22uninitialized_sequenceISt4pairIPcmENS_9allocatorIS4_EEEC2EmRKS6_.exit.i.i.i.i, label %cond.false.i.i.i.i.i.i.i.i

cond.false.i.i.i.i.i.i.i.i:                       ; preds = %call2.i.i.i.i.i.noexc.i.i.i
